(lp1
(lp2
cpygame
__rect_constructor
p3
(I482
I601
I576
I32
tRp4
aS'question block'
p5
aNaI00
aI0
aI0
aI0
aI0
aa(lp6
g3
(I1156
I533
I32
I32
tRp7
ag5
aNaI00
aI0
aI0
aI0
aI0
aa(lp8
g3
(I1302
I484
I96
I32
tRp9
ag5
aNaI00
aI0
aI0
aI0
aI0
aa(lp10
g3
(I1501
I538
I32
I32
tRp11
ag5
aNaI00
aI0
aI0
aI0
aI0
aa(lp12
g3
(I1797
I579
I96
I16
tRp13
aS'moving platform 3'
p14
aNaI01
aI0
aI1
aI32
aI300
aa(lp15
g3
(I2413
I534
I320
I64
tRp16
aS'block 1'
p17
aNaI00
aI0
aI0
aI0
aI0
aa(lp18
g3
(I2933
I587
I64
I64
tRp19
aS'pipe'
p20
aNaI00
aI0
aI0
aI0
aI0
aa(lp21
g3
(I3105
I651
I32
I32
tRp22
ag17
aNaI00
aI0
aI0
aI0
aI0
aa(lp23
g3
(I3222
I565
I32
I32
tRp24
ag17
aNaI00
aI0
aI0
aI0
aI0
aa(lp25
g3
(I3353
I699
I128
I32
tRp26
aS'cloud'
p27
aNaI01
aI1
aI0
aI130
aI200
aa(lp28
g3
(I3631
I437
I96
I128
tRp29
aS'mushroom platform'
p30
aNaI00
aI0
aI0
aI0
aI0
aa(lp31
g3
(I3947
I434
I96
I128
tRp32
ag30
aNaI00
aI0
aI0
aI0
aI0
aa(lp33
g3
(I4275
I512
I32
I27
tRp34
aS'trampoline'
p35
aNaI00
aI0
aI0
aI0
aI0
aa(lp36
g3
(I1229
I743
I384
I32
tRp37
ag17
aNaI00
aI0
aI0
aI0
aI0
aa(lp38
g3
(I1663
I488
I192
I32
tRp39
aS'block 1'
p40
aNaI00
aI0
aI0
aI0
aI0
aa(lp41
g3
(I2190
I472
I96
I128
tRp42
aS'mushroom platform'
p43
aNaI00
aI0
aI0
aI0
aI0
aa.