(lp1
(lp2
cpygame
__rect_constructor
p3
(I1760
I312
I32
I32
tRp4
aS'coin'
p5
aNaNaNaNaNaNaNaa(lp6
g3
(I1752
I339
I32
I32
tRp7
ag5
aNaNaNaNaNaNaNaa(lp8
g3
(I1760
I362
I32
I32
tRp9
ag5
aNaNaNaNaNaNaNaa(lp10
g3
(I1754
I383
I32
I32
tRp11
ag5
aNaNaNaNaNaNaNaa(lp12
g3
(I1756
I403
I32
I32
tRp13
ag5
aNaNaNaNaNaNaNaa(lp14
g3
(I1756
I428
I32
I32
tRp15
ag5
aNaNaNaNaNaNaNaa(lp16
g3
(I1759
I444
I32
I32
tRp17
ag5
aNaNaNaNaNaNaNaa(lp18
g3
(I1754
I468
I32
I32
tRp19
ag5
aNaNaNaNaNaNaNaa(lp20
g3
(I1735
I468
I32
I32
tRp21
ag5
aNaNaNaNaNaNaNaa(lp22
g3
(I1731
I457
I32
I32
tRp23
ag5
aNaNaNaNaNaNaNaa(lp24
g3
(I1718
I445
I32
I32
tRp25
ag5
aNaNaNaNaNaNaNaa(lp26
g3
(I1711
I436
I32
I32
tRp27
ag5
aNaNaNaNaNaNaNaa(lp28
g3
(I1701
I422
I32
I32
tRp29
ag5
aNaNaNaNaNaNaNaa(lp30
g3
(I1695
I412
I32
I32
tRp31
ag5
aNaNaNaNaNaNaNaa(lp32
g3
(I1761
I477
I32
I32
tRp33
ag5
aNaNaNaNaNaNaNaa(lp34
g3
(I1776
I462
I32
I32
tRp35
ag5
aNaNaNaNaNaNaNaa(lp36
g3
(I1778
I455
I32
I32
tRp37
ag5
aNaNaNaNaNaNaNaa(lp38
g3
(I1781
I446
I32
I32
tRp39
ag5
aNaNaNaNaNaNaNaa(lp40
g3
(I1787
I436
I32
I32
tRp41
ag5
aNaNaNaNaNaNaNaa(lp42
g3
(I1794
I422
I32
I32
tRp43
ag5
aNaNaNaNaNaNaNaa(lp44
g3
(I1805
I407
I32
I32
tRp45
ag5
aNaNaNaNaNaNaNaa(lp46
g3
(I1810
I397
I32
I32
tRp47
ag5
aNaNaNaNaNaNaNaa(lp48
g3
(I1668
I534
I32
I32
tRp49
aS'trampoline'
p50
aNaNaNaNaNaNaNaa(lp51
g3
(I1962
I547
I32
I32
tRp52
ag50
aNaNaNaNaNaNaNaa(lp53
g3
(I2248
I484
I256
I32
tRp54
aS'spark'
p55
aI2
aI2
aI0
aI0
aI01
ag3
(I2395
I534
I54
I54
tRp56
aI01
aa(lp57
g3
(I3876
I415
I46
I305
tRp58
aS'flag'
p59
aNaNaNaNaNaNaNaa(lp60
g3
(I3294
I442
I32
I32
tRp61
ag5
aNaNaNaNaNaNaNaa(lp62
g3
(I3322
I442
I32
I32
tRp63
ag5
aNaNaNaNaNaNaNaa(lp64
g3
(I3345
I442
I32
I32
tRp65
ag5
aNaNaNaNaNaNaNaa(lp66
g3
(I3498
I547
I32
I32
tRp67
ag5
aNaNaNaNaNaNaNaa(lp68
g3
(I3525
I547
I32
I32
tRp69
ag5
aNaNaNaNaNaNaNaa(lp70
g3
(I3541
I547
I32
I32
tRp71
ag5
aNaNaNaNaNaNaNaa(lp72
g3
(I3729
I630
I32
I32
tRp73
ag5
aNaNaNaNaNaNaNaa(lp74
g3
(I3750
I626
I32
I32
tRp75
ag5
aNaNaNaNaNaNaNaa(lp76
g3
(I3776
I628
I32
I32
tRp77
ag5
aNaNaNaNaNaNaNaa.