(lp1
(lp2
S'koopa'
p3
acpygame
__rect_constructor
p4
(I1691
I494
I32
I48
tRp5
aI-2
a(I32
I48
tp6
aI-15
aF1.5
aI0
aS'alive'
p7
aI00
aI2
aI1
aI301
aI301
aI2
aS'parabolic'
p8
aI00
aI0
aI200000
aI01
aI0
aa(lp9
g3
ag4
(I1424
I494
I32
I48
tRp10
aI-2
ag6
aI-15
aF1.5
aI0
ag7
aI00
aI2
aI1
aI301
aI301
aI2
ag8
aI00
aI0
aI200000
aI01
aI0
aa(lp11
S'flying koopa green'
p12
ag4
(I2551
I550
I54
I75
tRp13
aI3
a(I54
I75
tp14
aI-15
aF1.5
aI0
aS'flying'
p15
aI00
aI2
aI1
aI301
aI301
aI1
ag8
aI00
aI0
aI100
aI01
aI0
aa(lp16
S'buzzy beetle'
p17
ag4
(I791
I628
I32
I32
tRp18
aI-1
a(I32
I32
tp19
aI-15
aI0
aI0
aS'alive'
p20
aI00
aI2
aI1
aI301
aI301
aI2
aS'parabolic'
p21
aI00
aI0
aI10000
aI01
aI1000
aa(lp22
g17
ag4
(I737
I626
I32
I32
tRp23
aI-1
ag19
aI-15
aI0
aI0
ag20
aI00
aI2
aI1
aI301
aI301
aI2
ag21
aI00
aI0
aI10000
aI01
aI1000
aa.