(lp1
(lp2
cpygame
__rect_constructor
p3
(I130
I623
I1312
I64
tRp4
aS'brick 4'
p5
aNaI00
aI0
aI0
aI0
aI0
aa(lp6
g3
(I208
I490
I32
I32
tRp7
aS'question block'
p8
aS'mushroom'
p9
aI00
aI0
aI0
aI0
aI0
aa(lp10
g3
(I1595
I569
I32
I32
tRp11
aS'ground 4'
p12
ag9
aI00
aI0
aI0
aI0
aI0
aa(lp13
g3
(I1761
I512
I32
I32
tRp14
ag12
ag9
aI00
aI0
aI0
aI0
aI0
aa(lp15
g3
(I1934
I460
I32
I32
tRp16
ag12
ag9
aI00
aI0
aI0
aI0
aI0
aa(lp17
g3
(I2145
I478
I320
I32
tRp18
ag12
ag9
aI00
aI0
aI0
aI0
aI0
aa(lp19
g3
(I2582
I629
I576
I32
tRp20
aS'lava'
p21
ag9
aI00
aI0
aI0
aI0
aI0
aa(lp22
g3
(I2655
I478
I48
I16
tRp23
aS'moving platform'
p24
ag9
aI01
aI0
aI-1
aI33
aI50
aa(lp25
g3
(I2909
I484
I48
I16
tRp26
ag24
ag9
aI01
aI0
aI-1
aI2
aI50
aa(lp27
g3
(I3133
I484
I48
I16
tRp28
ag24
ag9
aI01
aI0
aI-1
aI-56
aI100
aa(lp29
g3
(I3432
I507
I480
I32
tRp30
aS'moving platform 3'
p31
ag9
aI00
aI0
aI0
aI0
aI0
aa(lp32
g3
(I4004
I664
I640
I32
tRp33
ag5
ag9
aI00
aI0
aI0
aI0
aI0
aa(lp34
g3
(I4274
I425
I416
I32
tRp35
ag5
ag9
aI00
aI0
aI0
aI0
aI0
aa(lp36
g3
(I4807
I632
I192
I32
tRp37
ag5
ag9
aI00
aI0
aI0
aI0
aI0
aa(lp38
g3
(I5085
I555
I160
I32
tRp39
ag5
ag9
aI00
aI0
aI0
aI0
aI0
aa(lp40
g3
(I5321
I487
I128
I32
tRp41
ag5
ag9
aI00
aI0
aI0
aI0
aI0
aa(lp42
g3
(I5551
I449
I64
I32
tRp43
ag5
ag9
aI00
aI0
aI0
aI0
aI0
aa(lp44
g3
(I5769
I452
I32
I32
tRp45
ag5
ag9
aI00
aI0
aI0
aI0
aI0
aa(lp46
g3
(I4027
I527
I32
I32
tRp47
ag8
aS'hammer'
p48
aI00
aI0
aI0
aI0
aI0
aa(lp49
g3
(I4135
I472
I32
I32
tRp50
aS'brick 3'
p51
ag48
aI00
aI0
aI0
aI0
aI0
aa(lp52
g3
(I5940
I560
I704
I64
tRp53
ag51
ag48
aI00
aI0
aI0
aI0
aI0
aa(lp54
g3
(I6458
I410
I288
I32
tRp55
aS'brick 1'
p56
ag48
aI00
aI0
aI0
aI0
aI0
aa(lp57
g3
(I6768
I651
I288
I32
tRp58
ag56
ag48
aI00
aI0
aI0
aI0
aI0
aa(lp59
g3
(I6068
I385
I320
I32
tRp60
ag56
ag48
aI00
aI0
aI0
aI0
aI0
aa.