(lp1
(lp2
S'red koopa flying'
p3
acpygame
__rect_constructor
p4
(I2827
I580
I32
I48
tRp5
aI-2
a(I32
I48
tp6
aI-15
aF-1.5
aI0
aS'alive'
p7
aI00
aI2
aI1
aI40
aI301
aI2
aS'parabolic'
p8
aI00
aI0
aI200
aI01
aI0
aa(lp9
S'goomba'
p10
ag4
(I2445
I481
I32
I32
tRp11
aI-2
a(I32
I32
tp12
aI-15
aF1.5
aI0
ag7
aI00
aI2
aI1
aI301
aI301
aI1
ag8
aI01
aI0
aI10000
aI01
aI0
aa(lp13
S'podoboo'
p14
ag4
(I1773
I475
I32
I48
tRp15
aI-3
a(I32
I48
tp16
aI-15
aF1.5
aI0
aS'flying'
p17
aI00
aI2
aI1
aI301
aI301
aI2
aS'parabolic'
p18
aI00
aI0
aI200
aI00
aI100
aa(lp19
S'flying koopa green'
p20
ag4
(I2093
I425
I54
I75
tRp21
aI3
a(I54
I75
tp22
aI-15
aF1.5
aI0
ag17
aI00
aI2
aI1
aI301
aI301
aI1
ag18
aI00
aI0
aI100
aI01
aI0
aa(lp23
S'snifit'
p24
ag4
(I2364
I459
I54
I54
tRp25
aI-1
a(I54
I54
tp26
aI-15
aI0
aI0
aS'alive'
p27
aI00
aI2
aI1
aI301
aI301
aI2
ag18
aI00
aI0
aI10000
aI01
aI0
aa(lp28
S'koopa'
p29
ag4
(I1142
I364
I32
I48
tRp30
aI-2
a(I32
I48
tp31
aI-15
aF1.5
aI0
aS'alive'
p32
aI00
aI2
aI1
aI301
aI301
aI2
aS'parabolic'
p33
aI00
aI0
aI200000
aI01
aI0
aa(lp34
g29
ag4
(I914
I409
I32
I48
tRp35
aI-2
ag31
aI-15
aF1.5
aI0
ag32
aI00
aI2
aI1
aI301
aI301
aI2
ag33
aI00
aI0
aI200000
aI01
aI0
aa(lp36
g29
ag4
(I692
I472
I32
I48
tRp37
aI-2
ag31
aI-15
aF1.5
aI0
ag32
aI00
aI2
aI1
aI301
aI301
aI2
ag33
aI00
aI0
aI200000
aI01
aI0
aa(lp38
g29
ag4
(I457
I519
I32
I48
tRp39
aI-2
ag31
aI-15
aF1.5
aI0
ag32
aI00
aI2
aI1
aI301
aI301
aI2
ag33
aI00
aI0
aI200000
aI01
aI0
aa(lp40
S'goomba'
p41
ag4
(I1529
I405
I32
I32
tRp42
aI-2
a(I32
I32
tp43
aI-15
aF1.5
aI0
ag32
aI00
aI2
aI1
aI301
aI301
aI1
ag33
aI01
aI0
aI10000
aI01
aI0
aa.