(lp1
(lp2
cpygame
__rect_constructor
p3
(I381
I598
I1664
I64
tRp4
aS'brick 3'
p5
aNaI00
aI0
aI0
aI0
aI0
aa(lp6
g3
(I531
I474
I32
I32
tRp7
aS'question block'
p8
aS'mushroom'
p9
aI00
aI0
aI0
aI0
aI0
aa(lp10
g3
(I643
I472
I32
I32
tRp11
ag8
ag9
aI00
aI0
aI0
aI0
aI0
aa.