(lp1
(lp2
cpygame
__rect_constructor
p3
(I368
I677
I608
I64
tRp4
aS'cloud'
p5
aNaI00
aI0
aI0
aI0
aI0
aa(lp6
g3
(I1174
I682
I608
I64
tRp7
ag5
aNaI00
aI0
aI0
aI0
aI0
aa(lp8
g3
(I1997
I689
I544
I64
tRp9
ag5
aNaI00
aI0
aI0
aI0
aI0
aa(lp10
g3
(I2749
I696
I32
I27
tRp11
aS'trampoline'
p12
aNaI00
aI0
aI0
aI0
aI0
aa.