(lp1
(lp2
cpygame
__rect_constructor
p3
(I2733
I675
I32
I32
tRp4
aS'trampoline'
p5
aNaNaNaNaNaNaNaa(lp6
g3
(I2967
I447
I46
I305
tRp7
aS'flag'
p8
aNaNaNaNaNaNaNaa(lp9
g3
(I632
I372
I32
I32
tRp10
aS'coin'
p11
aNaNaNaNaNaNaNaa(lp12
g3
(I632
I397
I32
I32
tRp13
ag11
aNaNaNaNaNaNaNaa(lp14
g3
(I638
I431
I32
I32
tRp15
ag11
aNaNaNaNaNaNaNaa(lp16
g3
(I645
I474
I32
I32
tRp17
ag11
aNaNaNaNaNaNaNaa(lp18
g3
(I631
I428
I32
I32
tRp19
ag11
aNaNaNaNaNaNaNaa(lp20
g3
(I631
I453
I32
I32
tRp21
ag11
aNaNaNaNaNaNaNaa(lp22
g3
(I632
I476
I32
I32
tRp23
ag11
aNaNaNaNaNaNaNaa(lp24
g3
(I632
I515
I32
I32
tRp25
ag11
aNaNaNaNaNaNaNaa(lp26
g3
(I629
I533
I32
I32
tRp27
ag11
aNaNaNaNaNaNaNaa(lp28
g3
(I646
I454
I32
I32
tRp29
ag11
aNaNaNaNaNaNaNaa(lp30
g3
(I671
I453
I32
I32
tRp31
ag11
aNaNaNaNaNaNaNaa(lp32
g3
(I680
I453
I32
I32
tRp33
ag11
aNaNaNaNaNaNaNaa(lp34
g3
(I698
I453
I32
I32
tRp35
ag11
aNaNaNaNaNaNaNaa(lp36
g3
(I715
I451
I32
I32
tRp37
ag11
aNaNaNaNaNaNaNaa(lp38
g3
(I731
I366
I32
I32
tRp39
ag11
aNaNaNaNaNaNaNaa(lp40
g3
(I729
I393
I32
I32
tRp41
ag11
aNaNaNaNaNaNaNaa(lp42
g3
(I729
I419
I32
I32
tRp43
ag11
aNaNaNaNaNaNaNaa(lp44
g3
(I729
I439
I32
I32
tRp45
ag11
aNaNaNaNaNaNaNaa(lp46
g3
(I729
I461
I32
I32
tRp47
ag11
aNaNaNaNaNaNaNaa(lp48
g3
(I729
I484
I32
I32
tRp49
ag11
aNaNaNaNaNaNaNaa(lp50
g3
(I729
I510
I32
I32
tRp51
ag11
aNaNaNaNaNaNaNaa(lp52
g3
(I729
I529
I32
I32
tRp53
ag11
aNaNaNaNaNaNaNaa(lp54
g3
(I815
I385
I32
I32
tRp55
ag11
aNaNaNaNaNaNaNaa(lp56
g3
(I791
I397
I32
I32
tRp57
ag11
aNaNaNaNaNaNaNaa(lp58
g3
(I781
I431
I32
I32
tRp59
ag11
aNaNaNaNaNaNaNaa(lp60
g3
(I781
I464
I32
I32
tRp61
ag11
aNaNaNaNaNaNaNaa(lp62
g3
(I788
I490
I32
I32
tRp63
ag11
aNaNaNaNaNaNaNaa(lp64
g3
(I809
I519
I32
I32
tRp65
ag11
aNaNaNaNaNaNaNaa(lp66
g3
(I829
I520
I32
I32
tRp67
ag11
aNaNaNaNaNaNaNaa(lp68
g3
(I855
I527
I32
I32
tRp69
ag11
aNaNaNaNaNaNaNaa(lp70
g3
(I865
I503
I32
I32
tRp71
ag11
aNaNaNaNaNaNaNaa(lp72
g3
(I881
I479
I32
I32
tRp73
ag11
aNaNaNaNaNaNaNaa(lp74
g3
(I887
I442
I32
I32
tRp75
ag11
aNaNaNaNaNaNaNaa(lp76
g3
(I881
I411
I32
I32
tRp77
ag11
aNaNaNaNaNaNaNaa(lp78
g3
(I865
I391
I32
I32
tRp79
ag11
aNaNaNaNaNaNaNaa(lp80
g3
(I841
I386
I32
I32
tRp81
ag11
aNaNaNaNaNaNaNaa(lp82
g3
(I923
I384
I32
I32
tRp83
ag11
aNaNaNaNaNaNaNaa(lp84
g3
(I923
I425
I32
I32
tRp85
ag11
aNaNaNaNaNaNaNaa(lp86
g3
(I924
I448
I32
I32
tRp87
ag11
aNaNaNaNaNaNaNaa(lp88
g3
(I928
I496
I32
I32
tRp89
ag11
aNaNaNaNaNaNaNaa(lp90
g3
(I928
I520
I32
I32
tRp91
ag11
aNaNaNaNaNaNaNaa(lp92
g3
(I932
I562
I32
I32
tRp93
ag11
aNaNaNaNaNaNaNaa(lp94
g3
(I930
I517
I32
I32
tRp95
ag11
aNaNaNaNaNaNaNaa(lp96
g3
(I930
I484
I32
I32
tRp97
ag11
aNaNaNaNaNaNaNaa(lp98
g3
(I930
I454
I32
I32
tRp99
ag11
aNaNaNaNaNaNaNaa(lp100
g3
(I928
I388
I32
I32
tRp101
ag11
aNaNaNaNaNaNaNaa(lp102
g3
(I955
I371
I32
I32
tRp103
ag11
aNaNaNaNaNaNaNaa(lp104
g3
(I994
I372
I32
I32
tRp105
ag11
aNaNaNaNaNaNaNaa(lp106
g3
(I1006
I383
I32
I32
tRp107
ag11
aNaNaNaNaNaNaNaa(lp108
g3
(I1013
I414
I32
I32
tRp109
ag11
aNaNaNaNaNaNaNaa(lp110
g3
(I1010
I429
I32
I32
tRp111
ag11
aNaNaNaNaNaNaNaa(lp112
g3
(I973
I442
I32
I32
tRp113
ag11
aNaNaNaNaNaNaNaa(lp114
g3
(I968
I442
I32
I32
tRp115
ag11
aNaNaNaNaNaNaNaa(lp116
g3
(I945
I442
I32
I32
tRp117
ag11
aNaNaNaNaNaNaNaa(lp118
g3
(I981
I442
I32
I32
tRp119
ag11
aNaNaNaNaNaNaNaa(lp120
g3
(I986
I442
I32
I32
tRp121
ag11
aNaNaNaNaNaNaNaa(lp122
g3
(I1058
I389
I32
I32
tRp123
ag11
aNaNaNaNaNaNaNaa(lp124
g3
(I1046
I440
I32
I32
tRp125
ag11
aNaNaNaNaNaNaNaa(lp126
g3
(I1049
I456
I32
I32
tRp127
ag11
aNaNaNaNaNaNaNaa(lp128
g3
(I1045
I496
I32
I32
tRp129
ag11
aNaNaNaNaNaNaNaa(lp130
g3
(I1046
I530
I32
I32
tRp131
ag11
aNaNaNaNaNaNaNaa(lp132
g3
(I1046
I542
I32
I32
tRp133
ag11
aNaNaNaNaNaNaNaa(lp134
g3
(I1047
I499
I32
I32
tRp135
ag11
aNaNaNaNaNaNaNaa(lp136
g3
(I1047
I467
I32
I32
tRp137
ag11
aNaNaNaNaNaNaNaa(lp138
g3
(I1047
I436
I32
I32
tRp139
ag11
aNaNaNaNaNaNaNaa(lp140
g3
(I1049
I402
I32
I32
tRp141
ag11
aNaNaNaNaNaNaNaa(lp142
g3
(I1057
I378
I32
I32
tRp143
ag11
aNaNaNaNaNaNaNaa(lp144
g3
(I1093
I379
I32
I32
tRp145
ag11
aNaNaNaNaNaNaNaa(lp146
g3
(I1116
I380
I32
I32
tRp147
ag11
aNaNaNaNaNaNaNaa(lp148
g3
(I1146
I380
I32
I32
tRp149
ag11
aNaNaNaNaNaNaNaa(lp150
g3
(I1149
I380
I32
I32
tRp151
ag11
aNaNaNaNaNaNaNaa(lp152
g3
(I1066
I479
I32
I32
tRp153
ag11
aNaNaNaNaNaNaNaa(lp154
g3
(I1086
I476
I32
I32
tRp155
ag11
aNaNaNaNaNaNaNaa(lp156
g3
(I1100
I475
I32
I32
tRp157
ag11
aNaNaNaNaNaNaNaa(lp158
g3
(I1044
I561
I32
I32
tRp159
ag11
aNaNaNaNaNaNaNaa(lp160
g3
(I1086
I561
I32
I32
tRp161
ag11
aNaNaNaNaNaNaNaa(lp162
g3
(I1106
I561
I32
I32
tRp163
ag11
aNaNaNaNaNaNaNaa(lp164
g3
(I1135
I562
I32
I32
tRp165
ag11
aNaNaNaNaNaNaNaa(lp166
g3
(I1164
I563
I32
I32
tRp167
ag11
aNaNaNaNaNaNaNaa(lp168
g3
(I1372
I388
I32
I32
tRp169
ag11
aNaNaNaNaNaNaNaa(lp170
g3
(I1383
I418
I32
I32
tRp171
ag11
aNaNaNaNaNaNaNaa(lp172
g3
(I1388
I438
I32
I32
tRp173
ag11
aNaNaNaNaNaNaNaa(lp174
g3
(I1408
I460
I32
I32
tRp175
ag11
aNaNaNaNaNaNaNaa(lp176
g3
(I1418
I471
I32
I32
tRp177
ag11
aNaNaNaNaNaNaNaa(lp178
g3
(I1425
I483
I32
I32
tRp179
ag11
aNaNaNaNaNaNaNaa(lp180
g3
(I1510
I387
I32
I32
tRp181
ag11
aNaNaNaNaNaNaNaa(lp182
g3
(I1498
I403
I32
I32
tRp183
ag11
aNaNaNaNaNaNaNaa(lp184
g3
(I1490
I426
I32
I32
tRp185
ag11
aNaNaNaNaNaNaNaa(lp186
g3
(I1476
I443
I32
I32
tRp187
ag11
aNaNaNaNaNaNaNaa(lp188
g3
(I1465
I462
I32
I32
tRp189
ag11
aNaNaNaNaNaNaNaa(lp190
g3
(I1458
I470
I32
I32
tRp191
ag11
aNaNaNaNaNaNaNaa(lp192
g3
(I1451
I480
I32
I32
tRp193
ag11
aNaNaNaNaNaNaNaa(lp194
g3
(I1439
I493
I32
I32
tRp195
ag11
aNaNaNaNaNaNaNaa(lp196
g3
(I1420
I513
I32
I32
tRp197
ag11
aNaNaNaNaNaNaNaa(lp198
g3
(I1412
I530
I32
I32
tRp199
ag11
aNaNaNaNaNaNaNaa(lp200
g3
(I1400
I554
I32
I32
tRp201
ag11
aNaNaNaNaNaNaNaa(lp202
g3
(I1388
I564
I32
I32
tRp203
ag11
aNaNaNaNaNaNaNaa(lp204
g3
(I1362
I584
I32
I32
tRp205
ag11
aNaNaNaNaNaNaNaa(lp206
g3
(I1565
I403
I32
I32
tRp207
ag11
aNaNaNaNaNaNaNaa(lp208
g3
(I1536
I430
I32
I32
tRp209
ag11
aNaNaNaNaNaNaNaa(lp210
g3
(I1520
I472
I32
I32
tRp211
ag11
aNaNaNaNaNaNaNaa(lp212
g3
(I1514
I500
I32
I32
tRp213
ag11
aNaNaNaNaNaNaNaa(lp214
g3
(I1514
I529
I32
I32
tRp215
ag11
aNaNaNaNaNaNaNaa(lp216
g3
(I1556
I574
I32
I32
tRp217
ag11
aNaNaNaNaNaNaNaa(lp218
g3
(I1529
I545
I32
I32
tRp219
ag11
aNaNaNaNaNaNaNaa(lp220
g3
(I1534
I562
I32
I32
tRp221
ag11
aNaNaNaNaNaNaNaa(lp222
g3
(I1539
I564
I32
I32
tRp223
ag11
aNaNaNaNaNaNaNaa(lp224
g3
(I1572
I580
I32
I32
tRp225
ag11
aNaNaNaNaNaNaNaa(lp226
g3
(I1608
I582
I32
I32
tRp227
ag11
aNaNaNaNaNaNaNaa(lp228
g3
(I1642
I578
I32
I32
tRp229
ag11
aNaNaNaNaNaNaNaa(lp230
g3
(I1603
I579
I32
I32
tRp231
ag11
aNaNaNaNaNaNaNaa(lp232
g3
(I1632
I579
I32
I32
tRp233
ag11
aNaNaNaNaNaNaNaa(lp234
g3
(I1654
I575
I32
I32
tRp235
ag11
aNaNaNaNaNaNaNaa(lp236
g3
(I1671
I561
I32
I32
tRp237
ag11
aNaNaNaNaNaNaNaa(lp238
g3
(I1678
I548
I32
I32
tRp239
ag11
aNaNaNaNaNaNaNaa(lp240
g3
(I1679
I530
I32
I32
tRp241
ag11
aNaNaNaNaNaNaNaa(lp242
g3
(I1680
I507
I32
I32
tRp243
ag11
aNaNaNaNaNaNaNaa(lp244
g3
(I1680
I485
I32
I32
tRp245
ag11
aNaNaNaNaNaNaNaa(lp246
g3
(I1680
I468
I32
I32
tRp247
ag11
aNaNaNaNaNaNaNaa(lp248
g3
(I1671
I444
I32
I32
tRp249
ag11
aNaNaNaNaNaNaNaa(lp250
g3
(I1659
I430
I32
I32
tRp251
ag11
aNaNaNaNaNaNaNaa(lp252
g3
(I1639
I420
I32
I32
tRp253
ag11
aNaNaNaNaNaNaNaa(lp254
g3
(I1627
I414
I32
I32
tRp255
ag11
aNaNaNaNaNaNaNaa(lp256
g3
(I1615
I408
I32
I32
tRp257
ag11
aNaNaNaNaNaNaNaa(lp258
g3
(I1599
I408
I32
I32
tRp259
ag11
aNaNaNaNaNaNaNaa(lp260
g3
(I1556
I414
I32
I32
tRp261
ag11
aNaNaNaNaNaNaNaa(lp262
g3
(I1546
I425
I32
I32
tRp263
ag11
aNaNaNaNaNaNaNaa(lp264
g3
(I1536
I443
I32
I32
tRp265
ag11
aNaNaNaNaNaNaNaa(lp266
g3
(I1535
I445
I32
I32
tRp267
ag11
aNaNaNaNaNaNaNaa(lp268
g3
(I1558
I422
I32
I32
tRp269
ag11
aNaNaNaNaNaNaNaa(lp270
g3
(I1569
I409
I32
I32
tRp271
ag11
aNaNaNaNaNaNaNaa(lp272
g3
(I1579
I406
I32
I32
tRp273
ag11
aNaNaNaNaNaNaNaa(lp274
g3
(I1743
I422
I32
I32
tRp275
ag11
aNaNaNaNaNaNaNaa(lp276
g3
(I1743
I422
I32
I32
tRp277
ag11
aNaNaNaNaNaNaNaa(lp278
g3
(I1743
I438
I32
I32
tRp279
ag11
aNaNaNaNaNaNaNaa(lp280
g3
(I1743
I452
I32
I32
tRp281
ag11
aNaNaNaNaNaNaNaa(lp282
g3
(I1743
I468
I32
I32
tRp283
ag11
aNaNaNaNaNaNaNaa(lp284
g3
(I1743
I487
I32
I32
tRp285
ag11
aNaNaNaNaNaNaNaa(lp286
g3
(I1743
I501
I32
I32
tRp287
ag11
aNaNaNaNaNaNaNaa(lp288
g3
(I1743
I518
I32
I32
tRp289
ag11
aNaNaNaNaNaNaNaa(lp290
g3
(I1743
I538
I32
I32
tRp291
ag11
aNaNaNaNaNaNaNaa(lp292
g3
(I1746
I556
I32
I32
tRp293
ag11
aNaNaNaNaNaNaNaa(lp294
g3
(I1757
I573
I32
I32
tRp295
ag11
aNaNaNaNaNaNaNaa(lp296
g3
(I1790
I580
I32
I32
tRp297
ag11
aNaNaNaNaNaNaNaa(lp298
g3
(I1810
I580
I32
I32
tRp299
ag11
aNaNaNaNaNaNaNaa(lp300
g3
(I1816
I574
I32
I32
tRp301
ag11
aNaNaNaNaNaNaNaa(lp302
g3
(I1827
I562
I32
I32
tRp303
ag11
aNaNaNaNaNaNaNaa(lp304
g3
(I1834
I544
I32
I32
tRp305
ag11
aNaNaNaNaNaNaNaa(lp306
g3
(I1835
I510
I32
I32
tRp307
ag11
aNaNaNaNaNaNaNaa(lp308
g3
(I1835
I476
I32
I32
tRp309
ag11
aNaNaNaNaNaNaNaa(lp310
g3
(I1836
I454
I32
I32
tRp311
ag11
aNaNaNaNaNaNaNaa(lp312
g3
(I1838
I429
I32
I32
tRp313
ag11
aNaNaNaNaNaNaNaa(lp314
g3
(I1838
I414
I32
I32
tRp315
ag11
aNaNaNaNaNaNaNaa(lp316
g3
(I1838
I414
I32
I32
tRp317
ag11
aNaNaNaNaNaNaNaa(lp318
g3
(I2027
I401
I32
I32
tRp319
ag11
aNaNaNaNaNaNaNaa(lp320
g3
(I2027
I401
I32
I32
tRp321
ag11
aNaNaNaNaNaNaNaa(lp322
g3
(I2023
I426
I32
I32
tRp323
ag11
aNaNaNaNaNaNaNaa(lp324
g3
(I2020
I453
I32
I32
tRp325
ag11
aNaNaNaNaNaNaNaa(lp326
g3
(I2021
I489
I32
I32
tRp327
ag11
aNaNaNaNaNaNaNaa(lp328
g3
(I2020
I524
I32
I32
tRp329
ag11
aNaNaNaNaNaNaNaa(lp330
g3
(I2020
I551
I32
I32
tRp331
ag11
aNaNaNaNaNaNaNaa(lp332
g3
(I2020
I563
I32
I32
tRp333
ag11
aNaNaNaNaNaNaNaa(lp334
g3
(I2020
I572
I32
I32
tRp335
ag11
aNaNaNaNaNaNaNaa(lp336
g3
(I2129
I391
I32
I32
tRp337
ag11
aNaNaNaNaNaNaNaa(lp338
g3
(I2129
I394
I32
I32
tRp339
ag11
aNaNaNaNaNaNaNaa(lp340
g3
(I2129
I429
I32
I32
tRp341
ag11
aNaNaNaNaNaNaNaa(lp342
g3
(I2129
I443
I32
I32
tRp343
ag11
aNaNaNaNaNaNaNaa(lp344
g3
(I2129
I488
I32
I32
tRp345
ag11
aNaNaNaNaNaNaNaa(lp346
g3
(I2129
I509
I32
I32
tRp347
ag11
aNaNaNaNaNaNaNaa(lp348
g3
(I2129
I532
I32
I32
tRp349
ag11
aNaNaNaNaNaNaNaa(lp350
g3
(I2129
I567
I32
I32
tRp351
ag11
aNaNaNaNaNaNaNaa(lp352
g3
(I2128
I582
I32
I32
tRp353
ag11
aNaNaNaNaNaNaNaa(lp354
g3
(I2126
I581
I32
I32
tRp355
ag11
aNaNaNaNaNaNaNaa(lp356
g3
(I2129
I538
I32
I32
tRp357
ag11
aNaNaNaNaNaNaNaa(lp358
g3
(I2132
I493
I32
I32
tRp359
ag11
aNaNaNaNaNaNaNaa(lp360
g3
(I2133
I444
I32
I32
tRp361
ag11
aNaNaNaNaNaNaNaa(lp362
g3
(I2133
I434
I32
I32
tRp363
ag11
aNaNaNaNaNaNaNaa(lp364
g3
(I2034
I465
I32
I32
tRp365
ag11
aNaNaNaNaNaNaNaa(lp366
g3
(I2020
I495
I32
I32
tRp367
ag11
aNaNaNaNaNaNaNaa(lp368
g3
(I2018
I543
I32
I32
tRp369
ag11
aNaNaNaNaNaNaNaa(lp370
g3
(I2030
I489
I32
I32
tRp371
ag11
aNaNaNaNaNaNaNaa(lp372
g3
(I2034
I489
I32
I32
tRp373
ag11
aNaNaNaNaNaNaNaa(lp374
g3
(I2054
I491
I32
I32
tRp375
ag11
aNaNaNaNaNaNaNaa(lp376
g3
(I2069
I491
I32
I32
tRp377
ag11
aNaNaNaNaNaNaNaa(lp378
g3
(I2071
I491
I32
I32
tRp379
ag11
aNaNaNaNaNaNaNaa(lp380
g3
(I2084
I491
I32
I32
tRp381
ag11
aNaNaNaNaNaNaNaa(lp382
g3
(I2109
I491
I32
I32
tRp383
ag11
aNaNaNaNaNaNaNaa(lp384
g3
(I2109
I491
I32
I32
tRp385
ag11
aNaNaNaNaNaNaNaa(lp386
g3
(I2200
I399
I32
I32
tRp387
ag11
aNaNaNaNaNaNaNaa(lp388
g3
(I2196
I418
I32
I32
tRp389
ag11
aNaNaNaNaNaNaNaa(lp390
g3
(I2185
I456
I32
I32
tRp391
ag11
aNaNaNaNaNaNaNaa(lp392
g3
(I2184
I493
I32
I32
tRp393
ag11
aNaNaNaNaNaNaNaa(lp394
g3
(I2180
I530
I32
I32
tRp395
ag11
aNaNaNaNaNaNaNaa(lp396
g3
(I2172
I569
I32
I32
tRp397
ag11
aNaNaNaNaNaNaNaa(lp398
g3
(I2168
I586
I32
I32
tRp399
ag11
aNaNaNaNaNaNaNaa(lp400
g3
(I2181
I529
I32
I32
tRp401
ag11
aNaNaNaNaNaNaNaa(lp402
g3
(I2185
I497
I32
I32
tRp403
ag11
aNaNaNaNaNaNaNaa(lp404
g3
(I2196
I448
I32
I32
tRp405
ag11
aNaNaNaNaNaNaNaa(lp406
g3
(I2198
I418
I32
I32
tRp407
ag11
aNaNaNaNaNaNaNaa(lp408
g3
(I2207
I397
I32
I32
tRp409
ag11
aNaNaNaNaNaNaNaa(lp410
g3
(I2223
I399
I32
I32
tRp411
ag11
aNaNaNaNaNaNaNaa(lp412
g3
(I2264
I444
I32
I32
tRp413
ag11
aNaNaNaNaNaNaNaa(lp414
g3
(I2280
I494
I32
I32
tRp415
ag11
aNaNaNaNaNaNaNaa(lp416
g3
(I2280
I504
I32
I32
tRp417
ag11
aNaNaNaNaNaNaNaa(lp418
g3
(I2293
I600
I32
I32
tRp419
ag11
aNaNaNaNaNaNaNaa(lp420
g3
(I2295
I609
I32
I32
tRp421
ag11
aNaNaNaNaNaNaNaa(lp422
g3
(I2297
I565
I32
I32
tRp423
ag11
aNaNaNaNaNaNaNaa(lp424
g3
(I2289
I536
I32
I32
tRp425
ag11
aNaNaNaNaNaNaNaa(lp426
g3
(I2280
I511
I32
I32
tRp427
ag11
aNaNaNaNaNaNaNaa(lp428
g3
(I2274
I476
I32
I32
tRp429
ag11
aNaNaNaNaNaNaNaa(lp430
g3
(I2262
I444
I32
I32
tRp431
ag11
aNaNaNaNaNaNaNaa(lp432
g3
(I2239
I415
I32
I32
tRp433
ag11
aNaNaNaNaNaNaNaa(lp434
g3
(I2234
I409
I32
I32
tRp435
ag11
aNaNaNaNaNaNaNaa(lp436
g3
(I2262
I447
I32
I32
tRp437
ag11
aNaNaNaNaNaNaNaa(lp438
g3
(I2290
I513
I32
I32
tRp439
ag11
aNaNaNaNaNaNaNaa(lp440
g3
(I2285
I591
I32
I32
tRp441
ag11
aNaNaNaNaNaNaNaa(lp442
g3
(I2194
I528
I32
I32
tRp443
ag11
aNaNaNaNaNaNaNaa(lp444
g3
(I2209
I528
I32
I32
tRp445
ag11
aNaNaNaNaNaNaNaa(lp446
g3
(I2219
I527
I32
I32
tRp447
ag11
aNaNaNaNaNaNaNaa(lp448
g3
(I2234
I527
I32
I32
tRp449
ag11
aNaNaNaNaNaNaNaa(lp450
g3
(I2242
I527
I32
I32
tRp451
ag11
aNaNaNaNaNaNaNaa(lp452
g3
(I2253
I527
I32
I32
tRp453
ag11
aNaNaNaNaNaNaNaa(lp454
g3
(I2272
I527
I32
I32
tRp455
ag11
aNaNaNaNaNaNaNaa(lp456
g3
(I2338
I423
I32
I32
tRp457
ag11
aNaNaNaNaNaNaNaa(lp458
g3
(I2338
I445
I32
I32
tRp459
ag11
aNaNaNaNaNaNaNaa(lp460
g3
(I2338
I464
I32
I32
tRp461
ag11
aNaNaNaNaNaNaNaa(lp462
g3
(I2339
I500
I32
I32
tRp463
ag11
aNaNaNaNaNaNaNaa(lp464
g3
(I2339
I520
I32
I32
tRp465
ag11
aNaNaNaNaNaNaNaa(lp466
g3
(I2339
I548
I32
I32
tRp467
ag11
aNaNaNaNaNaNaNaa(lp468
g3
(I2339
I569
I32
I32
tRp469
ag11
aNaNaNaNaNaNaNaa(lp470
g3
(I2340
I589
I32
I32
tRp471
ag11
aNaNaNaNaNaNaNaa(lp472
g3
(I2352
I411
I32
I32
tRp473
ag11
aNaNaNaNaNaNaNaa(lp474
g3
(I2445
I419
I32
I32
tRp475
ag11
aNaNaNaNaNaNaNaa(lp476
g3
(I2452
I440
I32
I32
tRp477
ag11
aNaNaNaNaNaNaNaa(lp478
g3
(I2452
I457
I32
I32
tRp479
ag11
aNaNaNaNaNaNaNaa(lp480
g3
(I2451
I523
I32
I32
tRp481
ag11
aNaNaNaNaNaNaNaa(lp482
g3
(I2437
I552
I32
I32
tRp483
ag11
aNaNaNaNaNaNaNaa(lp484
g3
(I2411
I578
I32
I32
tRp485
ag11
aNaNaNaNaNaNaNaa(lp486
g3
(I2353
I597
I32
I32
tRp487
ag11
aNaNaNaNaNaNaNaa(lp488
g3
(I2357
I597
I32
I32
tRp489
ag11
aNaNaNaNaNaNaNaa(lp490
g3
(I2386
I576
I32
I32
tRp491
ag11
aNaNaNaNaNaNaNaa(lp492
g3
(I2421
I561
I32
I32
tRp493
ag11
aNaNaNaNaNaNaNaa(lp494
g3
(I2430
I548
I32
I32
tRp495
ag11
aNaNaNaNaNaNaNaa(lp496
g3
(I2439
I508
I32
I32
tRp497
ag11
aNaNaNaNaNaNaNaa(lp498
g3
(I2445
I482
I32
I32
tRp499
ag11
aNaNaNaNaNaNaNaa(lp500
g3
(I2447
I455
I32
I32
tRp501
ag11
aNaNaNaNaNaNaNaa(lp502
g3
(I2437
I432
I32
I32
tRp503
ag11
aNaNaNaNaNaNaNaa(lp504
g3
(I2429
I414
I32
I32
tRp505
ag11
aNaNaNaNaNaNaNaa(lp506
g3
(I2409
I407
I32
I32
tRp507
ag11
aNaNaNaNaNaNaNaa(lp508
g3
(I2385
I403
I32
I32
tRp509
ag11
aNaNaNaNaNaNaNaa(lp510
g3
(I2365
I404
I32
I32
tRp511
ag11
aNaNaNaNaNaNaNaa(lp512
g3
(I2608
I417
I32
I32
tRp513
ag11
aNaNaNaNaNaNaNaa(lp514
g3
(I2604
I473
I32
I32
tRp515
ag11
aNaNaNaNaNaNaNaa(lp516
g3
(I2606
I518
I32
I32
tRp517
ag11
aNaNaNaNaNaNaNaa(lp518
g3
(I2602
I575
I32
I32
tRp519
ag11
aNaNaNaNaNaNaNaa(lp520
g3
(I2602
I588
I32
I32
tRp521
ag11
aNaNaNaNaNaNaNaa(lp522
g3
(I2608
I534
I32
I32
tRp523
ag11
aNaNaNaNaNaNaNaa(lp524
g3
(I2609
I508
I32
I32
tRp525
ag11
aNaNaNaNaNaNaNaa(lp526
g3
(I2609
I456
I32
I32
tRp527
ag11
aNaNaNaNaNaNaNaa(lp528
g3
(I2609
I429
I32
I32
tRp529
ag11
aNaNaNaNaNaNaNaa(lp530
g3
(I2611
I404
I32
I32
tRp531
ag11
aNaNaNaNaNaNaNaa(lp532
g3
(I2687
I401
I32
I32
tRp533
ag11
aNaNaNaNaNaNaNaa(lp534
g3
(I2707
I396
I32
I32
tRp535
ag11
aNaNaNaNaNaNaNaa(lp536
g3
(I2672
I401
I32
I32
tRp537
ag11
aNaNaNaNaNaNaNaa(lp538
g3
(I2615
I398
I32
I32
tRp539
ag11
aNaNaNaNaNaNaNaa(lp540
g3
(I2609
I400
I32
I32
tRp541
ag11
aNaNaNaNaNaNaNaa(lp542
g3
(I2686
I397
I32
I32
tRp543
ag11
aNaNaNaNaNaNaNaa(lp544
g3
(I2690
I396
I32
I32
tRp545
ag11
aNaNaNaNaNaNaNaa(lp546
g3
(I2667
I411
I32
I32
tRp547
ag11
aNaNaNaNaNaNaNaa(lp548
g3
(I2655
I398
I32
I32
tRp549
ag11
aNaNaNaNaNaNaNaa(lp550
g3
(I2645
I398
I32
I32
tRp551
ag11
aNaNaNaNaNaNaNaa(lp552
g3
(I2617
I457
I32
I32
tRp553
ag11
aNaNaNaNaNaNaNaa(lp554
g3
(I2607
I508
I32
I32
tRp555
ag11
aNaNaNaNaNaNaNaa(lp556
g3
(I2620
I496
I32
I32
tRp557
ag11
aNaNaNaNaNaNaNaa(lp558
g3
(I2634
I498
I32
I32
tRp559
ag11
aNaNaNaNaNaNaNaa(lp560
g3
(I2650
I498
I32
I32
tRp561
ag11
aNaNaNaNaNaNaNaa(lp562
g3
(I2652
I498
I32
I32
tRp563
ag11
aNaNaNaNaNaNaNaa(lp564
g3
(I2721
I399
I32
I32
tRp565
ag11
aNaNaNaNaNaNaNaa(lp566
g3
(I2719
I451
I32
I32
tRp567
ag11
aNaNaNaNaNaNaNaa(lp568
g3
(I2719
I484
I32
I32
tRp569
ag11
aNaNaNaNaNaNaNaa(lp570
g3
(I2715
I520
I32
I32
tRp571
ag11
aNaNaNaNaNaNaNaa(lp572
g3
(I2710
I551
I32
I32
tRp573
ag11
aNaNaNaNaNaNaNaa(lp574
g3
(I2715
I576
I32
I32
tRp575
ag11
aNaNaNaNaNaNaNaa(lp576
g3
(I2746
I590
I32
I32
tRp577
ag11
aNaNaNaNaNaNaNaa(lp578
g3
(I2755
I587
I32
I32
tRp579
ag11
aNaNaNaNaNaNaNaa(lp580
g3
(I2779
I544
I32
I32
tRp581
ag11
aNaNaNaNaNaNaNaa(lp582
g3
(I2783
I473
I32
I32
tRp583
ag11
aNaNaNaNaNaNaNaa(lp584
g3
(I2789
I430
I32
I32
tRp585
ag11
aNaNaNaNaNaNaNaa(lp586
g3
(I2787
I422
I32
I32
tRp587
ag11
aNaNaNaNaNaNaNaa(lp588
g3
(I2784
I480
I32
I32
tRp589
ag11
aNaNaNaNaNaNaNaa(lp590
g3
(I2774
I534
I32
I32
tRp591
ag11
aNaNaNaNaNaNaNaa(lp592
g3
(I2766
I558
I32
I32
tRp593
ag11
aNaNaNaNaNaNaNaa(lp594
g3
(I2760
I568
I32
I32
tRp595
ag11
aNaNaNaNaNaNaNaa(lp596
g3
(I2731
I581
I32
I32
tRp597
ag11
aNaNaNaNaNaNaNaa(lp598
g3
(I2730
I521
I32
I32
tRp599
ag11
aNaNaNaNaNaNaNaa(lp600
g3
(I2728
I475
I32
I32
tRp601
ag11
aNaNaNaNaNaNaNaa(lp602
g3
(I2728
I441
I32
I32
tRp603
ag11
aNaNaNaNaNaNaNaa(lp604
g3
(I2861
I428
I32
I32
tRp605
ag11
aNaNaNaNaNaNaNaa(lp606
g3
(I2844
I473
I32
I32
tRp607
ag11
aNaNaNaNaNaNaNaa(lp608
g3
(I2837
I538
I32
I32
tRp609
ag11
aNaNaNaNaNaNaNaa(lp610
g3
(I2833
I590
I32
I32
tRp611
ag11
aNaNaNaNaNaNaNaa(lp612
g3
(I2832
I597
I32
I32
tRp613
ag11
aNaNaNaNaNaNaNaa(lp614
g3
(I2839
I536
I32
I32
tRp615
ag11
aNaNaNaNaNaNaNaa(lp616
g3
(I2843
I477
I32
I32
tRp617
ag11
aNaNaNaNaNaNaNaa(lp618
g3
(I2850
I443
I32
I32
tRp619
ag11
aNaNaNaNaNaNaNaa(lp620
g3
(I2852
I426
I32
I32
tRp621
ag11
aNaNaNaNaNaNaNaa(lp622
g3
(I2861
I431
I32
I32
tRp623
ag11
aNaNaNaNaNaNaNaa(lp624
g3
(I2849
I490
I32
I32
tRp625
ag11
aNaNaNaNaNaNaNaa(lp626
g3
(I2820
I580
I32
I32
tRp627
ag11
aNaNaNaNaNaNaNaa(lp628
g3
(I2820
I592
I32
I32
tRp629
ag11
aNaNaNaNaNaNaNaa(lp630
g3
(I2838
I521
I32
I32
tRp631
ag11
aNaNaNaNaNaNaNaa(lp632
g3
(I2848
I444
I32
I32
tRp633
ag11
aNaNaNaNaNaNaNaa(lp634
g3
(I2874
I418
I32
I32
tRp635
ag11
aNaNaNaNaNaNaNaa(lp636
g3
(I2877
I485
I32
I32
tRp637
ag11
aNaNaNaNaNaNaNaa(lp638
g3
(I2897
I556
I32
I32
tRp639
ag11
aNaNaNaNaNaNaNaa(lp640
g3
(I2907
I587
I32
I32
tRp641
ag11
aNaNaNaNaNaNaNaa(lp642
g3
(I2907
I588
I32
I32
tRp643
ag11
aNaNaNaNaNaNaNaa(lp644
g3
(I2879
I520
I32
I32
tRp645
ag11
aNaNaNaNaNaNaNaa(lp646
g3
(I2878
I463
I32
I32
tRp647
ag11
aNaNaNaNaNaNaNaa(lp648
g3
(I2888
I507
I32
I32
tRp649
ag11
aNaNaNaNaNaNaNaa(lp650
g3
(I2913
I582
I32
I32
tRp651
ag11
aNaNaNaNaNaNaNaa(lp652
g3
(I2918
I485
I32
I32
tRp653
ag11
aNaNaNaNaNaNaNaa(lp654
g3
(I2918
I445
I32
I32
tRp655
ag11
aNaNaNaNaNaNaNaa(lp656
g3
(I2920
I420
I32
I32
tRp657
ag11
aNaNaNaNaNaNaNaa(lp658
g3
(I2916
I450
I32
I32
tRp659
ag11
aNaNaNaNaNaNaNaa(lp660
g3
(I2914
I516
I32
I32
tRp661
ag11
aNaNaNaNaNaNaNaa(lp662
g3
(I2915
I544
I32
I32
tRp663
ag11
aNaNaNaNaNaNaNaa(lp664
g3
(I2918
I571
I32
I32
tRp665
ag11
aNaNaNaNaNaNaNaa(lp666
g3
(I2775
I490
I32
I32
tRp667
ag11
aNaNaNaNaNaNaNaa(lp668
g3
(I2779
I510
I32
I32
tRp669
ag11
aNaNaNaNaNaNaNaa(lp670
g3
(I2780
I520
I32
I32
tRp671
ag11
aNaNaNaNaNaNaNaa.