(lp1
(lp2
S'red koopa flying'
p3
acpygame
__rect_constructor
p4
(I1555
I712
I32
I48
tRp5
aI-2
a(I32
I48
tp6
aI-15
aF-1.5
aI0
aS'alive'
p7
aI00
aI2
aI1
aI40
aI301
aI2
aS'parabolic'
p8
aI00
aI0
aI200
aI01
aI0
aa(lp9
g3
ag4
(I1306
I709
I32
I48
tRp10
aI-2
ag6
aI-15
aF-1.5
aI0
ag7
aI00
aI2
aI1
aI40
aI301
aI2
ag8
aI00
aI0
aI200
aI01
aI0
aa(lp11
S'hammer bros'
p12
ag4
(I1346
I397
I32
I48
tRp13
aI-1
a(I32
I48
tp14
aI-15
aI0
aI0
ag7
aI00
aI2
aI99
aI4
aI13
aI1
ag8
aI00
aI0
aI10000
aI01
aI0
aa(lp15
g12
ag4
(I3364
I705
I32
I48
tRp16
aI-1
ag14
aI-15
aI0
aI0
ag7
aI00
aI2
aI99
aI4
aI13
aI1
ag8
aI00
aI0
aI10000
aI01
aI0
aa(lp17
g12
ag4
(I3961
I709
I32
I48
tRp18
aI-1
ag14
aI-15
aI0
aI0
ag7
aI00
aI2
aI99
aI4
aI13
aI1
ag8
aI00
aI0
aI10000
aI01
aI0
aa(lp19
S'podoboo'
p20
ag4
(I3516
I410
I32
I48
tRp21
aI-3
a(I32
I48
tp22
aI-15
aF1.5
aI0
aS'flying'
p23
aI00
aI2
aI1
aI301
aI301
aI2
ag8
aI00
aI0
aI200
aI00
aI100
aa(lp24
g20
ag4
(I3276
I432
I32
I48
tRp25
aI-3
ag22
aI-15
aF1.5
aI0
ag23
aI00
aI2
aI1
aI301
aI301
aI2
ag8
aI00
aI0
aI200
aI00
aI100
aa(lp26
S'koopa'
p27
ag4
(I3152
I706
I32
I48
tRp28
aI-2
a(I32
I48
tp29
aI-15
aF1.5
aI0
ag7
aI00
aI2
aI1
aI301
aI301
aI2
ag8
aI00
aI0
aI200000
aI01
aI0
aa(lp30
g27
ag4
(I2998
I699
I32
I48
tRp31
aI-2
ag29
aI-15
aF1.5
aI0
ag7
aI00
aI2
aI1
aI301
aI301
aI2
ag8
aI00
aI0
aI200000
aI01
aI0
aa(lp32
S'spiny thing'
p33
ag4
(I2277
I723
I32
I32
tRp34
aI-5
a(I32
I32
tp35
aI-15
aI0
aI0
aS'alive'
p36
aI00
aI2
aI1
aI301
aI301
aI2
aS'parabolic'
p37
aI00
aI0
aI10000
aI00
aI0
aa(lp38
g33
ag4
(I2089
I725
I32
I32
tRp39
aI-5
ag35
aI-15
aI0
aI0
ag36
aI00
aI2
aI1
aI301
aI301
aI2
ag37
aI00
aI0
aI10000
aI00
aI0
aa(lp40
S'goomba'
p41
ag4
(I2774
I597
I32
I32
tRp42
aI-2
a(I32
I32
tp43
aI-15
aF1.5
aI0
ag36
aI00
aI2
aI1
aI301
aI301
aI1
ag37
aI01
aI0
aI10000
aI01
aI0
aa(lp44
g41
ag4
(I2526
I353
I32
I32
tRp45
aI-2
ag43
aI-15
aF1.5
aI0
ag36
aI00
aI2
aI1
aI301
aI301
aI1
ag37
aI01
aI0
aI10000
aI01
aI0
aa(lp46
g41
ag4
(I2429
I352
I32
I32
tRp47
aI-2
ag43
aI-15
aF1.5
aI0
ag36
aI00
aI2
aI1
aI301
aI301
aI1
ag37
aI01
aI0
aI10000
aI01
aI0
aa(lp48
S'piranha plant'
p49
ag4
(I3719
I457
I32
I48
tRp50
aI-2
a(I32
I48
tp51
aI-15
aI0
aI0
aS'flying'
p52
aI00
aI2
aI1
aI301
aI301
aI2
ag37
aI00
aI0
aI100
aI00
aI100
aa(lp53
g49
ag4
(I4504
I522
I32
I48
tRp54
aI-2
ag51
aI-15
aI0
aI0
ag52
aI00
aI2
aI1
aI301
aI301
aI2
ag37
aI00
aI0
aI100
aI00
aI100
aa(lp55
g49
ag4
(I4373
I618
I32
I48
tRp56
aI-2
ag51
aI-15
aI0
aI0
ag52
aI00
aI2
aI1
aI301
aI301
aI2
ag37
aI00
aI0
aI100
aI00
aI100
aa(lp57
S'cobrat'
p58
ag4
(I4166
I411
I54
I102
tRp59
aI-4
a(I54
I102
tp60
aI-15
aF1.5
aI0
ag36
aI00
aI2
aI1
aI301
aI301
aI1
ag37
aI00
aI0
aI10000
aI01
aI0
aa.