(lp1
(lp2
cpygame
__rect_constructor
p3
(I3090
I634
I32
I32
tRp4
aS'trampoline'
p5
aNaNaNaNaNaNaNaa(lp6
g3
(I3288
I578
I32
I32
tRp7
ag5
aNaNaNaNaNaNaNaa(lp8
g3
(I5660
I312
I46
I305
tRp9
aS'flag'
p10
aNaNaNaNaNaNaNaa(lp11
g3
(I2629
I390
I224
I32
tRp12
aS'spark'
p13
aI2
aI2
aI0
aI0
aI01
ag3
(I2781
I434
I54
I54
tRp14
aI01
aa(lp15
g3
(I3434
I493
I448
I32
tRp16
ag13
aI2
aI2
aI0
aI0
aI01
ag3
(I3827
I546
I54
I54
tRp17
aI01
aa(lp18
g3
(I5256
I349
I32
I28
tRp19
aS'bullet bill'
p20
aNaNaNaNaNaNaNaa(lp21
g3
(I5054
I709
I32
I28
tRp22
ag20
aNaNaNaNaNaNaNaa(lp23
g3
(I5520
I308
I32
I32
tRp24
aS'coin'
p25
aNaNaNaNaNaNaNaa(lp26
g3
(I5404
I371
I32
I32
tRp27
ag25
aNaNaNaNaNaNaNaa(lp28
g3
(I5263
I431
I32
I32
tRp29
ag25
aNaNaNaNaNaNaNaa(lp30
g3
(I5120
I432
I32
I32
tRp31
ag25
aNaNaNaNaNaNaNaa(lp32
g3
(I5085
I432
I32
I32
tRp33
ag25
aNaNaNaNaNaNaNaa(lp34
g3
(I4781
I429
I32
I32
tRp35
ag25
aNaNaNaNaNaNaNaa(lp36
g3
(I4737
I429
I32
I32
tRp37
ag25
aNaNaNaNaNaNaNaa(lp38
g3
(I4122
I430
I32
I32
tRp39
ag25
aNaNaNaNaNaNaNaa(lp40
g3
(I4090
I433
I32
I32
tRp41
ag25
aNaNaNaNaNaNaNaa(lp42
g3
(I3359
I336
I32
I32
tRp43
ag25
aNaNaNaNaNaNaNaa(lp44
g3
(I3171
I340
I32
I32
tRp45
ag25
aNaNaNaNaNaNaNaa(lp46
g3
(I3017
I411
I32
I32
tRp47
ag25
aNaNaNaNaNaNaNaa(lp48
g3
(I3571
I724
I32
I32
tRp49
ag25
aNaNaNaNaNaNaNaa(lp50
g3
(I3589
I723
I32
I32
tRp51
ag25
aNaNaNaNaNaNaNaa(lp52
g3
(I3608
I723
I32
I32
tRp53
ag25
aNaNaNaNaNaNaNaa(lp54
g3
(I3623
I723
I32
I32
tRp55
ag25
aNaNaNaNaNaNaNaa(lp56
g3
(I3637
I723
I32
I32
tRp57
ag25
aNaNaNaNaNaNaNaa(lp58
g3
(I3655
I723
I32
I32
tRp59
ag25
aNaNaNaNaNaNaNaa(lp60
g3
(I3664
I723
I32
I32
tRp61
ag25
aNaNaNaNaNaNaNaa(lp62
g3
(I3681
I724
I32
I32
tRp63
ag25
aNaNaNaNaNaNaNaa(lp64
g3
(I3694
I724
I32
I32
tRp65
ag25
aNaNaNaNaNaNaNaa(lp66
g3
(I3714
I724
I32
I32
tRp67
ag25
aNaNaNaNaNaNaNaa(lp68
g3
(I3704
I705
I32
I32
tRp69
ag25
aNaNaNaNaNaNaNaa(lp70
g3
(I3674
I682
I32
I32
tRp71
ag25
aNaNaNaNaNaNaNaa(lp72
g3
(I3671
I674
I32
I32
tRp73
ag25
aNaNaNaNaNaNaNaa(lp74
g3
(I3629
I652
I32
I32
tRp75
ag25
aNaNaNaNaNaNaNaa(lp76
g3
(I3652
I657
I32
I32
tRp77
ag25
aNaNaNaNaNaNaNaa(lp78
g3
(I3671
I672
I32
I32
tRp79
ag25
aNaNaNaNaNaNaNaa(lp80
g3
(I3675
I679
I32
I32
tRp81
ag25
aNaNaNaNaNaNaNaa(lp82
g3
(I3712
I745
I32
I32
tRp83
ag25
aNaNaNaNaNaNaNaa(lp84
g3
(I3702
I763
I32
I32
tRp85
ag25
aNaNaNaNaNaNaNaa(lp86
g3
(I3690
I771
I32
I32
tRp87
ag25
aNaNaNaNaNaNaNaa(lp88
g3
(I3666
I780
I32
I32
tRp89
ag25
aNaNaNaNaNaNaNaa(lp90
g3
(I872
I445
I32
I32
tRp91
ag25
aNaNaNaNaNaNaNaa(lp92
g3
(I998
I447
I32
I32
tRp93
ag25
aNaNaNaNaNaNaNaa(lp94
g3
(I1140
I450
I32
I32
tRp95
ag25
aNaNaNaNaNaNaNaa(lp96
g3
(I1298
I450
I32
I32
tRp97
ag25
aNaNaNaNaNaNaNaa(lp98
g3
(I1442
I453
I32
I32
tRp99
ag25
aNaNaNaNaNaNaNaa.