(lp1
(lp2
cpygame
__rect_constructor
p3
(I3073
I395
I46
I305
tRp4
aS'flag'
p5
aNaNaNaNaNaNaNaa(lp6
g3
(I2759
I643
I32
I28
tRp7
aS'bullet bill'
p8
aNaNaNaNaNaNaNaa(lp9
g3
(I2911
I468
I32
I28
tRp10
ag8
aNaNaNaNaNaNaNaa(lp11
g3
(I1763
I404
I320
I64
tRp12
aS'spark'
p13
aI2
aI2
aI0
aI0
aI01
ag3
(I2021
I473
I54
I54
tRp14
aI01
aa(lp15
g3
(I1805
I650
I32
I32
tRp16
aS'coin'
p17
aNaNaNaNaNaNaNaa(lp18
g3
(I1821
I649
I32
I32
tRp19
ag17
aNaNaNaNaNaNaNaa(lp20
g3
(I1833
I650
I32
I32
tRp21
ag17
aNaNaNaNaNaNaNaa(lp22
g3
(I1849
I650
I32
I32
tRp23
ag17
aNaNaNaNaNaNaNaa(lp24
g3
(I1862
I650
I32
I32
tRp25
ag17
aNaNaNaNaNaNaNaa(lp26
g3
(I1877
I650
I32
I32
tRp27
ag17
aNaNaNaNaNaNaNaa(lp28
g3
(I1897
I651
I32
I32
tRp29
ag17
aNaNaNaNaNaNaNaa(lp30
g3
(I1912
I651
I32
I32
tRp31
ag17
aNaNaNaNaNaNaNaa(lp32
g3
(I1928
I651
I32
I32
tRp33
ag17
aNaNaNaNaNaNaNaa(lp34
g3
(I1938
I651
I32
I32
tRp35
ag17
aNaNaNaNaNaNaNaa(lp36
g3
(I1956
I651
I32
I32
tRp37
ag17
aNaNaNaNaNaNaNaa(lp38
g3
(I1973
I651
I32
I32
tRp39
ag17
aNaNaNaNaNaNaNaa(lp40
g3
(I1978
I640
I32
I32
tRp41
ag17
aNaNaNaNaNaNaNaa(lp42
g3
(I1962
I625
I32
I32
tRp43
ag17
aNaNaNaNaNaNaNaa(lp44
g3
(I1949
I613
I32
I32
tRp45
ag17
aNaNaNaNaNaNaNaa(lp46
g3
(I1929
I600
I32
I32
tRp47
ag17
aNaNaNaNaNaNaNaa(lp48
g3
(I1984
I655
I32
I32
tRp49
ag17
aNaNaNaNaNaNaNaa(lp50
g3
(I1971
I680
I32
I32
tRp51
ag17
aNaNaNaNaNaNaNaa(lp52
g3
(I1959
I696
I32
I32
tRp53
ag17
aNaNaNaNaNaNaNaa(lp54
g3
(I1951
I705
I32
I32
tRp55
ag17
aNaNaNaNaNaNaNaa(lp56
g3
(I515
I380
I32
I32
tRp57
ag17
aNaNaNaNaNaNaNaa(lp58
g3
(I521
I399
I32
I32
tRp59
ag17
aNaNaNaNaNaNaNaa(lp60
g3
(I532
I421
I32
I32
tRp61
ag17
aNaNaNaNaNaNaNaa(lp62
g3
(I546
I452
I32
I32
tRp63
ag17
aNaNaNaNaNaNaNaa(lp64
g3
(I558
I437
I32
I32
tRp65
ag17
aNaNaNaNaNaNaNaa(lp66
g3
(I573
I415
I32
I32
tRp67
ag17
aNaNaNaNaNaNaNaa(lp68
g3
(I579
I402
I32
I32
tRp69
ag17
aNaNaNaNaNaNaNaa(lp70
g3
(I587
I381
I32
I32
tRp71
ag17
aNaNaNaNaNaNaNaa(lp72
g3
(I606
I352
I32
I32
tRp73
ag17
aNaNaNaNaNaNaNaa(lp74
g3
(I588
I319
I32
I32
tRp75
ag17
aNaNaNaNaNaNaNaa(lp76
g3
(I554
I321
I32
I32
tRp77
ag17
aNaNaNaNaNaNaNaa(lp78
g3
(I552
I333
I32
I32
tRp79
ag17
aNaNaNaNaNaNaNaa(lp80
g3
(I526
I314
I32
I32
tRp81
ag17
aNaNaNaNaNaNaNaa(lp82
g3
(I514
I312
I32
I32
tRp83
ag17
aNaNaNaNaNaNaNaa(lp84
g3
(I495
I325
I32
I32
tRp85
ag17
aNaNaNaNaNaNaNaa(lp86
g3
(I496
I346
I32
I32
tRp87
ag17
aNaNaNaNaNaNaNaa(lp88
g3
(I569
I308
I32
I32
tRp89
ag17
aNaNaNaNaNaNaNaa(lp90
g3
(I589
I318
I32
I32
tRp91
ag17
aNaNaNaNaNaNaNaa(lp92
g3
(I596
I349
I32
I32
tRp93
ag17
aNaNaNaNaNaNaNaa(lp94
g3
(I599
I379
I32
I32
tRp95
ag17
aNaNaNaNaNaNaNaa(lp96
g3
(I512
I362
I32
I32
tRp97
ag17
aNaNaNaNaNaNaNaa.