(lp1
(lp2
cpygame
__rect_constructor
p3
(I3947
I402
I96
I128
tRp4
aS'spark'
p5
aI2
aI2
aI0
aI0
aI01
ag3
(I4008
I474
I54
I54
tRp6
aI01
aa(lp7
g3
(I3631
I405
I96
I128
tRp8
ag5
aI2
aI2
aI0
aI0
aI01
ag3
(I3682
I493
I54
I54
tRp9
aI01
aa(lp10
g3
(I4259
I491
I32
I32
tRp11
aS'trampoline'
p12
aNaNaNaNaNaNaNaa(lp13
g3
(I4499
I348
I46
I305
tRp14
aS'flag'
p15
aNaNaNaNaNaNaNaa(lp16
g3
(I1173
I664
I32
I32
tRp17
aS'cheep cheep'
p18
aI0
aI-20
aI-3
aS'alive'
p19
aNaNaNaa(lp20
g3
(I3649
I340
I32
I32
tRp21
aS'coin'
p22
aNaNaNaNaNaNaNaa(lp23
g3
(I3676
I339
I32
I32
tRp24
ag22
aNaNaNaNaNaNaNaa(lp25
g3
(I3961
I348
I32
I32
tRp26
ag22
aNaNaNaNaNaNaNaa(lp27
g3
(I4000
I346
I32
I32
tRp28
ag22
aNaNaNaNaNaNaNaa(lp29
g3
(I3360
I344
I32
I32
tRp30
ag22
aNaNaNaNaNaNaNaa(lp31
g3
(I3391
I343
I32
I32
tRp32
ag22
aNaNaNaNaNaNaNaa(lp33
g3
(I3418
I342
I32
I32
tRp34
ag22
aNaNaNaNaNaNaNaa(lp35
g3
(I2222
I401
I32
I32
tRp36
ag22
aNaNaNaNaNaNaNaa(lp37
g3
(I1832
I483
I32
I32
tRp38
ag22
aNaNaNaNaNaNaNaa(lp39
g3
(I2003
I485
I32
I32
tRp40
ag22
aNaNaNaNaNaNaNaa(lp41
g3
(I2161
I481
I32
I32
tRp42
ag22
aNaNaNaNaNaNaNaa(lp43
g3
(I1278
I680
I32
I32
tRp44
ag22
aNaNaNaNaNaNaNaa(lp45
g3
(I1333
I680
I32
I32
tRp46
ag22
aNaNaNaNaNaNaNaa(lp47
g3
(I1367
I676
I32
I32
tRp48
ag22
aNaNaNaNaNaNaNaa(lp49
g3
(I1409
I678
I32
I32
tRp50
ag22
aNaNaNaNaNaNaNaa(lp51
g3
(I1441
I678
I32
I32
tRp52
ag22
aNaNaNaNaNaNaNaa(lp53
g3
(I1474
I682
I32
I32
tRp54
ag22
aNaNaNaNaNaNaNaa(lp55
g3
(I1494
I679
I32
I32
tRp56
ag22
aNaNaNaNaNaNaNaa.