(lp1
(lp2
cpygame
__rect_constructor
p3
(I345
I676
I512
I32
tRp4
aS'brick 3'
p5
aNaI00
aI0
aI0
aI0
aI0
aa(lp6
g3
(I967
I620
I160
I32
tRp7
ag5
aNaI00
aI0
aI0
aI0
aI0
aa(lp8
g3
(I1238
I538
I256
I32
tRp9
ag5
aNaI00
aI0
aI0
aI0
aI0
aa(lp10
g3
(I1684
I555
I32
I27
tRp11
aS'trampoline'
p12
aNaI00
aI0
aI0
aI0
aI0
aa(lp13
g3
(I1978
I568
I32
I27
tRp14
ag12
aNaI00
aI0
aI0
aI0
aI0
aa(lp15
g3
(I2248
I516
I256
I32
tRp16
aS'block 1'
p17
aNaI00
aI0
aI0
aI0
aI0
aa(lp18
g3
(I2274
I393
I32
I32
tRp19
aS'question block'
p20
aS'flower'
p21
aI00
aI0
aI0
aI0
aI0
aa(lp22
g3
(I2410
I390
I32
I32
tRp23
ag20
aS'green mushroom'
p24
aI00
aI0
aI0
aI0
aI0
aa(lp25
g3
(I1576
I709
I672
I32
tRp26
aS'grass'
p27
ag24
aI00
aI0
aI0
aI0
aI0
aa(lp28
g3
(I2655
I570
I448
I32
tRp29
aS'lava'
p30
ag24
aI00
aI0
aI0
aI0
aI0
aa(lp31
g3
(I2835
I500
I320
I32
tRp32
ag17
ag24
aI00
aI0
aI0
aI0
aI0
aa(lp33
g3
(I3298
I559
I96
I16
tRp34
aS'moving platform 3'
p35
ag24
aI00
aI0
aI0
aI0
aI0
aa(lp36
g3
(I3503
I626
I96
I16
tRp37
ag35
ag24
aI00
aI0
aI0
aI0
aI0
aa(lp38
g3
(I3730
I698
I96
I16
tRp39
ag35
ag24
aI00
aI0
aI0
aI0
aI0
aa(lp40
g3
(I2405
I730
I96
I16
tRp41
aS'moving platform 3'
p42
aNaI00
aI0
aI0
aI0
aI0
aa(lp43
g3
(I2747
I737
I96
I16
tRp44
ag42
aNaI00
aI0
aI0
aI0
aI0
aa(lp45
g3
(I3105
I733
I96
I16
tRp46
ag42
aNaI00
aI0
aI0
aI0
aI0
aa(lp47
g3
(I3244
I653
I96
I16
tRp48
ag42
aNaI00
aI0
aI0
aI0
aI0
aa.