(lp1
(lp2
I756
aI479
a(lp3
(lp4
I0
aI49605
aa(lp5
I20
aI49605
aa(lp6
I40
aI49605
aa(lp7
I60
aI49605
aa(lp8
I80
aI49605
aa(lp9
I100
aI49605
aaaa(lp10
I1178
aI483
a(lp11
(lp12
I0
aI48726
aa(lp13
I20
aI48726
aa(lp14
I40
aI48726
aa(lp15
I60
aI48726
aa(lp16
I80
aI48726
aa(lp17
I100
aI48726
aaaa(lp18
I982
aI603
a(lp19
(lp20
I0
aI47196
aa(lp21
I20
aI47196
aa(lp22
I40
aI47196
aa(lp23
I60
aI47196
aa(lp24
I80
aI47196
aa(lp25
I100
aI47196
aaaa.