(lp1
(lp2
cpygame
__rect_constructor
p3
(I818
I460
I32
I32
tRp4
aS'coin'
p5
aNaNaNaNaNaNaNaa(lp6
g3
(I831
I478
I32
I32
tRp7
ag5
aNaNaNaNaNaNaNaa(lp8
g3
(I846
I480
I32
I32
tRp9
ag5
aNaNaNaNaNaNaNaa(lp10
g3
(I877
I479
I32
I32
tRp11
ag5
aNaNaNaNaNaNaNaa(lp12
g3
(I864
I480
I32
I32
tRp13
ag5
aNaNaNaNaNaNaNaa(lp14
g3
(I897
I465
I32
I32
tRp15
ag5
aNaNaNaNaNaNaNaa(lp16
g3
(I904
I453
I32
I32
tRp17
ag5
aNaNaNaNaNaNaNaa(lp18
g3
(I900
I420
I32
I32
tRp19
ag5
aNaNaNaNaNaNaNaa(lp20
g3
(I890
I417
I32
I32
tRp21
ag5
aNaNaNaNaNaNaNaa(lp22
g3
(I874
I419
I32
I32
tRp23
ag5
aNaNaNaNaNaNaNaa(lp24
g3
(I866
I432
I32
I32
tRp25
ag5
aNaNaNaNaNaNaNaa(lp26
g3
(I865
I450
I32
I32
tRp27
ag5
aNaNaNaNaNaNaNaa(lp28
g3
(I865
I474
I32
I32
tRp29
ag5
aNaNaNaNaNaNaNaa(lp30
g3
(I856
I509
I32
I32
tRp31
ag5
aNaNaNaNaNaNaNaa(lp32
g3
(I842
I525
I32
I32
tRp33
ag5
aNaNaNaNaNaNaNaa(lp34
g3
(I825
I542
I32
I32
tRp35
ag5
aNaNaNaNaNaNaNaa(lp36
g3
(I801
I548
I32
I32
tRp37
ag5
aNaNaNaNaNaNaNaa(lp38
g3
(I781
I545
I32
I32
tRp39
ag5
aNaNaNaNaNaNaNaa(lp40
g3
(I774
I530
I32
I32
tRp41
ag5
aNaNaNaNaNaNaNaa(lp42
g3
(I781
I518
I32
I32
tRp43
ag5
aNaNaNaNaNaNaNaa(lp44
g3
(I802
I519
I32
I32
tRp45
ag5
aNaNaNaNaNaNaNaa(lp46
g3
(I807
I520
I32
I32
tRp47
ag5
aNaNaNaNaNaNaNaa(lp48
g3
(I829
I539
I32
I32
tRp49
ag5
aNaNaNaNaNaNaNaa(lp50
g3
(I843
I553
I32
I32
tRp51
ag5
aNaNaNaNaNaNaNaa(lp52
g3
(I857
I554
I32
I32
tRp53
ag5
aNaNaNaNaNaNaNaa(lp54
g3
(I878
I567
I32
I32
tRp55
ag5
aNaNaNaNaNaNaNaa(lp56
g3
(I911
I567
I32
I32
tRp57
ag5
aNaNaNaNaNaNaNaa(lp58
g3
(I917
I566
I32
I32
tRp59
ag5
aNaNaNaNaNaNaNaa(lp60
g3
(I928
I564
I32
I32
tRp61
ag5
aNaNaNaNaNaNaNaa(lp62
g3
(I937
I560
I32
I32
tRp63
ag5
aNaNaNaNaNaNaNaa(lp64
g3
(I897
I570
I32
I32
tRp65
ag5
aNaNaNaNaNaNaNaa(lp66
g3
(I820
I525
I32
I32
tRp67
ag5
aNaNaNaNaNaNaNaa(lp68
g3
(I911
I436
I32
I32
tRp69
ag5
aNaNaNaNaNaNaNaa(lp70
g3
(I886
I470
I32
I32
tRp71
ag5
aNaNaNaNaNaNaNaa(lp72
g3
(I1040
I478
I32
I32
tRp73
ag5
aNaNaNaNaNaNaNaa(lp74
g3
(I1025
I478
I32
I32
tRp75
ag5
aNaNaNaNaNaNaNaa(lp76
g3
(I1007
I482
I32
I32
tRp77
ag5
aNaNaNaNaNaNaNaa(lp78
g3
(I993
I498
I32
I32
tRp79
ag5
aNaNaNaNaNaNaNaa(lp80
g3
(I987
I510
I32
I32
tRp81
ag5
aNaNaNaNaNaNaNaa(lp82
g3
(I986
I529
I32
I32
tRp83
ag5
aNaNaNaNaNaNaNaa(lp84
g3
(I992
I545
I32
I32
tRp85
ag5
aNaNaNaNaNaNaNaa(lp86
g3
(I1000
I545
I32
I32
tRp87
ag5
aNaNaNaNaNaNaNaa(lp88
g3
(I1021
I545
I32
I32
tRp89
ag5
aNaNaNaNaNaNaNaa(lp90
g3
(I1034
I537
I32
I32
tRp91
ag5
aNaNaNaNaNaNaNaa(lp92
g3
(I1049
I526
I32
I32
tRp93
ag5
aNaNaNaNaNaNaNaa(lp94
g3
(I1049
I525
I32
I32
tRp95
ag5
aNaNaNaNaNaNaNaa(lp96
g3
(I1049
I525
I32
I32
tRp97
ag5
aNaNaNaNaNaNaNaa(lp98
g3
(I1055
I507
I32
I32
tRp99
ag5
aNaNaNaNaNaNaNaa(lp100
g3
(I1065
I485
I32
I32
tRp101
ag5
aNaNaNaNaNaNaNaa(lp102
g3
(I1059
I478
I32
I32
tRp103
ag5
aNaNaNaNaNaNaNaa(lp104
g3
(I1063
I510
I32
I32
tRp105
ag5
aNaNaNaNaNaNaNaa(lp106
g3
(I1063
I535
I32
I32
tRp107
ag5
aNaNaNaNaNaNaNaa(lp108
g3
(I1068
I555
I32
I32
tRp109
ag5
aNaNaNaNaNaNaNaa(lp110
g3
(I1078
I560
I32
I32
tRp111
ag5
aNaNaNaNaNaNaNaa(lp112
g3
(I1083
I562
I32
I32
tRp113
ag5
aNaNaNaNaNaNaNaa(lp114
g3
(I1132
I486
I32
I32
tRp115
ag5
aNaNaNaNaNaNaNaa(lp116
g3
(I1132
I512
I32
I32
tRp117
ag5
aNaNaNaNaNaNaNaa(lp118
g3
(I1134
I536
I32
I32
tRp119
ag5
aNaNaNaNaNaNaNaa(lp120
g3
(I1144
I549
I32
I32
tRp121
ag5
aNaNaNaNaNaNaNaa(lp122
g3
(I1162
I556
I32
I32
tRp123
ag5
aNaNaNaNaNaNaNaa(lp124
g3
(I1164
I556
I32
I32
tRp125
ag5
aNaNaNaNaNaNaNaa(lp126
g3
(I1172
I556
I32
I32
tRp127
ag5
aNaNaNaNaNaNaNaa(lp128
g3
(I1186
I554
I32
I32
tRp129
ag5
aNaNaNaNaNaNaNaa(lp130
g3
(I1193
I549
I32
I32
tRp131
ag5
aNaNaNaNaNaNaNaa(lp132
g3
(I1195
I539
I32
I32
tRp133
ag5
aNaNaNaNaNaNaNaa(lp134
g3
(I1200
I522
I32
I32
tRp135
ag5
aNaNaNaNaNaNaNaa(lp136
g3
(I1200
I509
I32
I32
tRp137
ag5
aNaNaNaNaNaNaNaa(lp138
g3
(I1200
I492
I32
I32
tRp139
ag5
aNaNaNaNaNaNaNaa(lp140
g3
(I1199
I486
I32
I32
tRp141
ag5
aNaNaNaNaNaNaNaa(lp142
g3
(I1207
I543
I32
I32
tRp143
ag5
aNaNaNaNaNaNaNaa(lp144
g3
(I1218
I560
I32
I32
tRp145
ag5
aNaNaNaNaNaNaNaa(lp146
g3
(I1227
I560
I32
I32
tRp147
ag5
aNaNaNaNaNaNaNaa(lp148
g3
(I1275
I470
I32
I32
tRp149
ag5
aNaNaNaNaNaNaNaa(lp150
g3
(I1283
I480
I32
I32
tRp151
ag5
aNaNaNaNaNaNaNaa(lp152
g3
(I1283
I496
I32
I32
tRp153
ag5
aNaNaNaNaNaNaNaa(lp154
g3
(I1288
I525
I32
I32
tRp155
ag5
aNaNaNaNaNaNaNaa(lp156
g3
(I1288
I541
I32
I32
tRp157
ag5
aNaNaNaNaNaNaNaa(lp158
g3
(I1289
I560
I32
I32
tRp159
ag5
aNaNaNaNaNaNaNaa(lp160
g3
(I1284
I509
I32
I32
tRp161
ag5
aNaNaNaNaNaNaNaa(lp162
g3
(I1298
I483
I32
I32
tRp163
ag5
aNaNaNaNaNaNaNaa(lp164
g3
(I1311
I465
I32
I32
tRp165
ag5
aNaNaNaNaNaNaNaa(lp166
g3
(I1320
I465
I32
I32
tRp167
ag5
aNaNaNaNaNaNaNaa(lp168
g3
(I1450
I465
I32
I32
tRp169
ag5
aNaNaNaNaNaNaNaa(lp170
g3
(I1426
I467
I32
I32
tRp171
ag5
aNaNaNaNaNaNaNaa(lp172
g3
(I1407
I468
I32
I32
tRp173
ag5
aNaNaNaNaNaNaNaa(lp174
g3
(I1393
I471
I32
I32
tRp175
ag5
aNaNaNaNaNaNaNaa(lp176
g3
(I1374
I492
I32
I32
tRp177
ag5
aNaNaNaNaNaNaNaa(lp178
g3
(I1365
I513
I32
I32
tRp179
ag5
aNaNaNaNaNaNaNaa(lp180
g3
(I1364
I530
I32
I32
tRp181
ag5
aNaNaNaNaNaNaNaa(lp182
g3
(I1361
I550
I32
I32
tRp183
ag5
aNaNaNaNaNaNaNaa(lp184
g3
(I1367
I568
I32
I32
tRp185
ag5
aNaNaNaNaNaNaNaa(lp186
g3
(I1374
I568
I32
I32
tRp187
ag5
aNaNaNaNaNaNaNaa(lp188
g3
(I1390
I568
I32
I32
tRp189
ag5
aNaNaNaNaNaNaNaa(lp190
g3
(I1400
I564
I32
I32
tRp191
ag5
aNaNaNaNaNaNaNaa(lp192
g3
(I1416
I559
I32
I32
tRp193
ag5
aNaNaNaNaNaNaNaa(lp194
g3
(I1423
I544
I32
I32
tRp195
ag5
aNaNaNaNaNaNaNaa(lp196
g3
(I1430
I538
I32
I32
tRp197
ag5
aNaNaNaNaNaNaNaa(lp198
g3
(I1431
I524
I32
I32
tRp199
ag5
aNaNaNaNaNaNaNaa(lp200
g3
(I1447
I509
I32
I32
tRp201
ag5
aNaNaNaNaNaNaNaa(lp202
g3
(I1447
I491
I32
I32
tRp203
ag5
aNaNaNaNaNaNaNaa(lp204
g3
(I1452
I480
I32
I32
tRp205
ag5
aNaNaNaNaNaNaNaa(lp206
g3
(I1441
I470
I32
I32
tRp207
ag5
aNaNaNaNaNaNaNaa(lp208
g3
(I1451
I534
I32
I32
tRp209
ag5
aNaNaNaNaNaNaNaa(lp210
g3
(I1451
I549
I32
I32
tRp211
ag5
aNaNaNaNaNaNaNaa(lp212
g3
(I1473
I564
I32
I32
tRp213
ag5
aNaNaNaNaNaNaNaa(lp214
g3
(I1477
I567
I32
I32
tRp215
ag5
aNaNaNaNaNaNaNaa(lp216
g3
(I1485
I576
I32
I32
tRp217
ag5
aNaNaNaNaNaNaNaa(lp218
g3
(I1501
I575
I32
I32
tRp219
ag5
aNaNaNaNaNaNaNaa(lp220
g3
(I1501
I575
I32
I32
tRp221
ag5
aNaNaNaNaNaNaNaa(lp222
g3
(I1463
I567
I32
I32
tRp223
ag5
aNaNaNaNaNaNaNaa(lp224
g3
(I256
I660
I32
I32
tRp225
ag5
aNaNaNaNaNaNaNaa(lp226
g3
(I271
I665
I32
I32
tRp227
ag5
aNaNaNaNaNaNaNaa(lp228
g3
(I276
I662
I32
I32
tRp229
ag5
aNaNaNaNaNaNaNaa(lp230
g3
(I296
I661
I32
I32
tRp231
ag5
aNaNaNaNaNaNaNaa(lp232
g3
(I314
I663
I32
I32
tRp233
ag5
aNaNaNaNaNaNaNaa(lp234
g3
(I334
I669
I32
I32
tRp235
ag5
aNaNaNaNaNaNaNaa(lp236
g3
(I359
I668
I32
I32
tRp237
ag5
aNaNaNaNaNaNaNaa(lp238
g3
(I372
I666
I32
I32
tRp239
ag5
aNaNaNaNaNaNaNaa(lp240
g3
(I393
I665
I32
I32
tRp241
ag5
aNaNaNaNaNaNaNaa(lp242
g3
(I429
I667
I32
I32
tRp243
ag5
aNaNaNaNaNaNaNaa(lp244
g3
(I437
I667
I32
I32
tRp245
ag5
aNaNaNaNaNaNaNaa(lp246
g3
(I466
I664
I32
I32
tRp247
ag5
aNaNaNaNaNaNaNaa(lp248
g3
(I499
I668
I32
I32
tRp249
ag5
aNaNaNaNaNaNaNaa(lp250
g3
(I414
I665
I32
I32
tRp251
ag5
aNaNaNaNaNaNaNaa(lp252
g3
(I523
I662
I32
I32
tRp253
ag5
aNaNaNaNaNaNaNaa(lp254
g3
(I550
I662
I32
I32
tRp255
ag5
aNaNaNaNaNaNaNaa(lp256
g3
(I555
I662
I32
I32
tRp257
ag5
aNaNaNaNaNaNaNaa(lp258
g3
(I576
I662
I32
I32
tRp259
ag5
aNaNaNaNaNaNaNaa(lp260
g3
(I599
I662
I32
I32
tRp261
ag5
aNaNaNaNaNaNaNaa(lp262
g3
(I614
I656
I32
I32
tRp263
ag5
aNaNaNaNaNaNaNaa(lp264
g3
(I2440
I314
I46
I305
tRp265
aS'flag'
p266
aNaNaNaNaNaNaNaa.