(lp1
(lp2
cpygame
__rect_constructor
p3
(I341
I476
I32
I32
tRp4
aS'cloud'
p5
aNaI00
aI0
aI0
aI0
aI0
aa(lp6
g3
(I340
I507
I32
I32
tRp7
ag5
aNaI00
aI0
aI0
aI0
aI0
aa(lp8
g3
(I468
I475
I32
I32
tRp9
ag5
aNaI00
aI0
aI0
aI0
aI0
aa(lp10
g3
(I469
I507
I32
I32
tRp11
ag5
aNaI00
aI0
aI0
aI0
aI0
aa(lp12
g3
(I299
I595
I32
I64
tRp13
ag5
aNaI00
aI0
aI0
aI0
aI0
aa(lp14
g3
(I333
I627
I192
I32
tRp15
ag5
aNaI00
aI0
aI0
aI0
aI0
aa(lp16
g3
(I524
I626
I32
I32
tRp17
ag5
aNaI00
aI0
aI0
aI0
aI0
aa(lp18
g3
(I523
I596
I32
I32
tRp19
ag5
aNaI00
aI0
aI0
aI0
aI0
aa(lp20
g3
(I479
I348
I32
I32
tRp21
aS'ground 2'
p22
aNaI00
aI0
aI0
aI0
aI0
aa(lp23
g3
(I448
I380
I32
I32
tRp24
ag22
aNaI00
aI0
aI0
aI0
aI0
aa(lp25
g3
(I414
I380
I32
I32
tRp26
ag22
aNaI00
aI0
aI0
aI0
aI0
aa(lp27
g3
(I381
I382
I32
I32
tRp28
ag22
aNaI00
aI0
aI0
aI0
aI0
aa(lp29
g3
(I346
I415
I32
I32
tRp30
ag22
aNaI00
aI0
aI0
aI0
aI0
aa(lp31
g3
(I314
I417
I32
I32
tRp32
ag22
aNaI00
aI0
aI0
aI0
aI0
aa(lp33
g3
(I282
I449
I32
I32
tRp34
ag22
aNaI00
aI0
aI0
aI0
aI0
aa(lp35
g3
(I279
I481
I32
I32
tRp36
ag22
aNaI00
aI0
aI0
aI0
aI0
aa(lp37
g3
(I245
I516
I32
I32
tRp38
ag22
aNaI00
aI0
aI0
aI0
aI0
aa(lp39
g3
(I245
I549
I32
I32
tRp40
ag22
aNaI00
aI0
aI0
aI0
aI0
aa(lp41
g3
(I211
I307
I32
I32
tRp42
ag22
aNaI00
aI0
aI0
aI0
aI0
aa(lp43
g3
(I172
I340
I32
I128
tRp44
ag22
aNaI00
aI0
aI0
aI0
aI0
aa(lp45
g3
(I142
I479
I32
I32
tRp46
ag22
aNaI00
aI0
aI0
aI0
aI0
aa(lp47
g3
(I243
I306
I32
I32
tRp48
ag22
aNaI00
aI0
aI0
aI0
aI0
aa(lp49
g3
(I34
I665
I32
I32
tRp50
ag22
aNaI00
aI0
aI0
aI0
aI0
aa(lp51
g3
(I74
I664
I160
I32
tRp52
ag22
aNaI00
aI0
aI0
aI0
aI0
aa(lp53
g3
(I202
I629
I32
I32
tRp54
ag22
aNaI00
aI0
aI0
aI0
aI0
aa(lp55
g3
(I203
I596
I32
I32
tRp56
ag22
aNaI00
aI0
aI0
aI0
aI0
aa(lp57
g3
(I168
I629
I32
I32
tRp58
ag22
aNaI00
aI0
aI0
aI0
aI0
aa(lp59
g3
(I205
I561
I32
I32
tRp60
ag22
aNaI00
aI0
aI0
aI0
aI0
aa(lp61
g3
(I139
I446
I32
I32
tRp62
ag22
aNaI00
aI0
aI0
aI0
aI0
aa(lp63
g3
(I249
I692
I352
I32
tRp64
aS'ground 3'
p65
aNaI00
aI0
aI0
aI0
aI0
aa(lp66
g3
(I618
I309
I32
I32
tRp67
ag22
aNaI00
aI0
aI0
aI0
aI0
aa(lp68
g3
(I649
I343
I32
I32
tRp69
ag22
aNaI00
aI0
aI0
aI0
aI0
aa(lp70
g3
(I647
I377
I32
I192
tRp71
ag22
aNaI00
aI0
aI0
aI0
aI0
aa(lp72
g3
(I682
I573
I32
I32
tRp73
ag22
aNaI00
aI0
aI0
aI0
aI0
aa(lp74
g3
(I717
I607
I32
I32
tRp75
ag22
aNaI00
aI0
aI0
aI0
aI0
aa(lp76
g3
(I606
I691
I32
I32
tRp77
ag22
aNaI00
aI0
aI0
aI0
aI0
aa(lp78
g3
(I645
I688
I160
I32
tRp79
ag22
aNaI00
aI0
aI0
aI0
aI0
aa(lp80
g3
(I852
I599
I96
I128
tRp81
aS'mushroom platform'
p82
aNaI00
aI0
aI0
aI0
aI0
aa(lp83
g3
(I1049
I600
I96
I128
tRp84
ag82
aNaI00
aI0
aI0
aI0
aI0
aa(lp85
g3
(I1231
I598
I96
I128
tRp86
ag82
aNaI00
aI0
aI0
aI0
aI0
aa(lp87
g3
(I1425
I598
I96
I128
tRp88
ag82
aNaI00
aI0
aI0
aI0
aI0
aa(lp89
g3
(I883
I461
I32
I32
tRp90
aS'question block'
p91
aS'flower'
p92
aI00
aI0
aI0
aI0
aI0
aa(lp93
g3
(I1260
I463
I32
I32
tRp94
ag91
aS'mushroom'
p95
aI00
aI0
aI0
aI0
aI0
aa(lp96
g3
(I1580
I702
I416
I32
tRp97
ag22
ag95
aI00
aI0
aI0
aI0
aI0
aa(lp98
g3
(I2066
I622
I128
I32
tRp99
ag22
ag95
aI00
aI0
aI0
aI0
aI0
aa(lp100
g3
(I1910
I499
I128
I32
tRp101
ag22
ag95
aI00
aI0
aI0
aI0
aI0
aa(lp102
g3
(I2124
I531
I32
I32
tRp103
ag22
ag95
aI00
aI0
aI0
aI0
aI0
aa(lp104
g3
(I2078
I380
I32
I32
tRp105
ag22
ag95
aI00
aI0
aI0
aI0
aI0
aa(lp106
g3
(I2045
I413
I32
I32
tRp107
ag22
ag95
aI00
aI0
aI0
aI0
aI0
aa(lp108
g3
(I2195
I372
I32
I256
tRp109
ag22
ag95
aI00
aI0
aI0
aI0
aI0
aa(lp110
g3
(I2288
I455
I32
I32
tRp111
ag22
ag95
aI00
aI0
aI0
aI0
aI0
aa(lp112
g3
(I2322
I453
I32
I32
tRp113
ag22
ag95
aI00
aI0
aI0
aI0
aI0
aa.