(lp1
(lp2
cpygame
__rect_constructor
p3
(I415
I654
I416
I32
tRp4
aS'cloud'
p5
aNaI00
aI0
aI0
aI0
aI0
aa(lp6
g3
(I960
I574
I32
I32
tRp7
ag5
aNaI00
aI0
aI0
aI0
aI0
aa(lp8
g3
(I1109
I587
I192
I32
tRp9
ag5
aNaI00
aI0
aI0
aI0
aI0
aa(lp10
g3
(I1139
I461
I32
I32
tRp11
aS'question block'
p12
aS'hammer'
p13
aI00
aI0
aI0
aI0
aI0
aa(lp14
g3
(I1418
I312
I256
I128
tRp15
ag5
ag13
aI01
aI-1
aI0
aI-195
aI200
aa(lp16
g3
(I1763
I436
I320
I64
tRp17
ag5
ag13
aI00
aI0
aI0
aI0
aI0
aa(lp18
g3
(I2233
I507
I384
I64
tRp19
ag5
ag13
aI01
aI0
aI1
aI-30
aI100
aa(lp20
g3
(I2779
I401
I32
I32
tRp21
ag5
ag13
aI00
aI0
aI0
aI0
aI0
aa(lp22
g3
(I2749
I711
I256
I32
tRp23
ag5
ag13
aI00
aI0
aI0
aI0
aI0
aa.