(lp1
(lp2
cpygame
__rect_constructor
p3
(I3098
I426
I46
I305
tRp4
aS'flag'
p5
aNaNaNaNaNaNaNaa(lp6
g3
(I1871
I342
I32
I32
tRp7
aS'coin'
p8
aNaNaNaNaNaNaNaa(lp9
g3
(I1888
I339
I32
I32
tRp10
ag8
aNaNaNaNaNaNaNaa(lp11
g3
(I1913
I339
I32
I32
tRp12
ag8
aNaNaNaNaNaNaNaa(lp13
g3
(I1928
I341
I32
I32
tRp14
ag8
aNaNaNaNaNaNaNaa(lp15
g3
(I1955
I340
I32
I32
tRp16
ag8
aNaNaNaNaNaNaNaa(lp17
g3
(I1965
I340
I32
I32
tRp18
ag8
aNaNaNaNaNaNaNaa(lp19
g3
(I1392
I614
I32
I32
tRp20
ag8
aNaNaNaNaNaNaNaa(lp21
g3
(I1407
I614
I32
I32
tRp22
ag8
aNaNaNaNaNaNaNaa(lp23
g3
(I1421
I614
I32
I32
tRp24
ag8
aNaNaNaNaNaNaNaa(lp25
g3
(I1435
I614
I32
I32
tRp26
ag8
aNaNaNaNaNaNaNaa(lp27
g3
(I1450
I615
I32
I32
tRp28
ag8
aNaNaNaNaNaNaNaa(lp29
g3
(I1466
I615
I32
I32
tRp30
ag8
aNaNaNaNaNaNaNaa(lp31
g3
(I1476
I615
I32
I32
tRp32
ag8
aNaNaNaNaNaNaNaa(lp33
g3
(I1489
I616
I32
I32
tRp34
ag8
aNaNaNaNaNaNaNaa(lp35
g3
(I1501
I616
I32
I32
tRp36
ag8
aNaNaNaNaNaNaNaa(lp37
g3
(I1512
I616
I32
I32
tRp38
ag8
aNaNaNaNaNaNaNaa(lp39
g3
(I1523
I615
I32
I32
tRp40
ag8
aNaNaNaNaNaNaNaa(lp41
g3
(I1512
I601
I32
I32
tRp42
ag8
aNaNaNaNaNaNaNaa(lp43
g3
(I1497
I591
I32
I32
tRp44
ag8
aNaNaNaNaNaNaNaa(lp45
g3
(I1492
I583
I32
I32
tRp46
ag8
aNaNaNaNaNaNaNaa(lp47
g3
(I1477
I575
I32
I32
tRp48
ag8
aNaNaNaNaNaNaNaa(lp49
g3
(I1466
I568
I32
I32
tRp50
ag8
aNaNaNaNaNaNaNaa(lp51
g3
(I1523
I625
I32
I32
tRp52
ag8
aNaNaNaNaNaNaNaa(lp53
g3
(I1516
I633
I32
I32
tRp54
ag8
aNaNaNaNaNaNaNaa(lp55
g3
(I1507
I639
I32
I32
tRp56
ag8
aNaNaNaNaNaNaNaa(lp57
g3
(I1499
I649
I32
I32
tRp58
ag8
aNaNaNaNaNaNaNaa(lp59
g3
(I1490
I660
I32
I32
tRp60
ag8
aNaNaNaNaNaNaNaa(lp61
g3
(I1480
I666
I32
I32
tRp62
ag8
aNaNaNaNaNaNaNaa(lp63
g3
(I2655
I481
I32
I32
tRp64
ag8
aNaNaNaNaNaNaNaa(lp65
g3
(I2757
I480
I32
I32
tRp66
ag8
aNaNaNaNaNaNaNaa(lp67
g3
(I2309
I361
I32
I32
tRp68
ag8
aNaNaNaNaNaNaNaa(lp69
g3
(I2405
I352
I32
I32
tRp70
ag8
aNaNaNaNaNaNaNaa(lp71
g3
(I243
I313
I32
I32
tRp72
ag8
aNaNaNaNaNaNaNaa(lp73
g3
(I268
I314
I32
I32
tRp74
ag8
aNaNaNaNaNaNaNaa(lp75
g3
(I292
I312
I32
I32
tRp76
ag8
aNaNaNaNaNaNaNaa(lp77
g3
(I317
I312
I32
I32
tRp78
ag8
aNaNaNaNaNaNaNaa.