(lp1
(lp2
cpygame
__rect_constructor
p3
(I444
I562
I32
I32
tRp4
aS'coin'
p5
aNaNaNaNaNaNaNaa(lp6
g3
(I541
I515
I32
I32
tRp7
ag5
aNaNaNaNaNaNaNaa(lp8
g3
(I635
I490
I32
I32
tRp9
ag5
aNaNaNaNaNaNaNaa(lp10
g3
(I724
I449
I32
I32
tRp11
ag5
aNaNaNaNaNaNaNaa(lp12
g3
(I426
I339
I32
I32
tRp13
ag5
aNaNaNaNaNaNaNaa(lp14
g3
(I445
I340
I32
I32
tRp15
ag5
aNaNaNaNaNaNaNaa(lp16
g3
(I457
I339
I32
I32
tRp17
ag5
aNaNaNaNaNaNaNaa(lp18
g3
(I467
I338
I32
I32
tRp19
ag5
aNaNaNaNaNaNaNaa(lp20
g3
(I483
I339
I32
I32
tRp21
ag5
aNaNaNaNaNaNaNaa(lp22
g3
(I497
I339
I32
I32
tRp23
ag5
aNaNaNaNaNaNaNaa(lp24
g3
(I509
I337
I32
I32
tRp25
ag5
aNaNaNaNaNaNaNaa(lp26
g3
(I522
I337
I32
I32
tRp27
ag5
aNaNaNaNaNaNaNaa(lp28
g3
(I533
I337
I32
I32
tRp29
ag5
aNaNaNaNaNaNaNaa(lp30
g3
(I540
I353
I32
I32
tRp31
ag5
aNaNaNaNaNaNaNaa(lp32
g3
(I527
I369
I32
I32
tRp33
ag5
aNaNaNaNaNaNaNaa(lp34
g3
(I516
I377
I32
I32
tRp35
ag5
aNaNaNaNaNaNaNaa(lp36
g3
(I505
I386
I32
I32
tRp37
ag5
aNaNaNaNaNaNaNaa(lp38
g3
(I540
I323
I32
I32
tRp39
ag5
aNaNaNaNaNaNaNaa(lp40
g3
(I522
I315
I32
I32
tRp41
ag5
aNaNaNaNaNaNaNaa(lp42
g3
(I510
I307
I32
I32
tRp43
ag5
aNaNaNaNaNaNaNaa(lp44
g3
(I499
I302
I32
I32
tRp45
ag5
aNaNaNaNaNaNaNaa(lp46
g3
(I488
I298
I32
I32
tRp47
ag5
aNaNaNaNaNaNaNaa(lp48
g3
(I413
I337
I32
I32
tRp49
ag5
aNaNaNaNaNaNaNaa(lp50
g3
(I388
I338
I32
I32
tRp51
ag5
aNaNaNaNaNaNaNaa(lp52
g3
(I4261
I470
I46
I305
tRp53
aS'flag'
p54
aNaNaNaNaNaNaNaa.