(lp1
(lp2
cpygame
__rect_constructor
p3
(I897
I505
I32
I32
tRp4
aS'coin'
p5
aNaNaNaNaNaNaNaa(lp6
g3
(I1066
I525
I32
I32
tRp7
ag5
aNaNaNaNaNaNaNaa(lp8
g3
(I1015
I537
I32
I32
tRp9
ag5
aNaNaNaNaNaNaNaa(lp10
g3
(I2232
I396
I46
I305
tRp11
aS'flag'
p12
aNaNaNaNaNaNaNaa.