(lp1
(lp2
cpygame
__rect_constructor
p3
(I249
I683
I672
I32
tRp4
aS'grass'
p5
aNaI00
aI0
aI0
aI0
aI0
aa(lp6
g3
(I455
I653
I32
I32
tRp7
aS'block 1'
p8
aNaI00
aI0
aI0
aI0
aI0
aa(lp9
g3
(I634
I652
I32
I32
tRp10
ag8
aNaI00
aI0
aI0
aI0
aI0
aa(lp11
g3
(I634
I620
I32
I32
tRp12
ag8
aNaI00
aI0
aI0
aI0
aI0
aa(lp13
g3
(I635
I586
I32
I32
tRp14
ag8
aNaI00
aI0
aI0
aI0
aI0
aa(lp15
g3
(I546
I651
I32
I32
tRp16
ag8
aNaI00
aI0
aI0
aI0
aI0
aa(lp17
g3
(I545
I618
I32
I32
tRp18
ag8
aNaI00
aI0
aI0
aI0
aI0
aa(lp19
g3
(I721
I651
I32
I32
tRp20
ag8
aNaI00
aI0
aI0
aI0
aI0
aa(lp21
g3
(I722
I618
I32
I32
tRp22
ag8
aNaI00
aI0
aI0
aI0
aI0
aa(lp23
g3
(I722
I584
I32
I32
tRp24
ag8
aNaI00
aI0
aI0
aI0
aI0
aa(lp25
g3
(I724
I549
I32
I32
tRp26
ag8
aNaI00
aI0
aI0
aI0
aI0
aa(lp27
g3
(I1131
I573
I96
I128
tRp28
aS'mushroom platform'
p29
aNaI00
aI0
aI0
aI0
aI0
aa(lp30
g3
(I1000
I620
I32
I32
tRp31
ag8
aNaI00
aI0
aI0
aI0
aI0
aa(lp32
g3
(I1302
I495
I32
I32
tRp33
ag8
aNaI00
aI0
aI0
aI0
aI0
aa(lp34
g3
(I1414
I457
I160
I32
tRp35
ag8
aNaI00
aI0
aI0
aI0
aI0
aa(lp36
g3
(I1729
I541
I128
I32
tRp37
ag5
aNaI00
aI0
aI0
aI0
aI0
aa(lp38
g3
(I1901
I422
I192
I32
tRp39
ag5
aNaI00
aI0
aI0
aI0
aI0
aa(lp40
g3
(I1821
I447
I32
I32
tRp41
ag5
aNaI00
aI0
aI0
aI0
aI0
aa(lp42
g3
(I1893
I697
I384
I32
tRp43
ag5
aNaI00
aI0
aI0
aI0
aI0
aa(lp44
g3
(I1919
I304
I32
I32
tRp45
aS'question block'
p46
aS'mushroom'
p47
aI00
aI0
aI0
aI0
aI0
aa(lp48
g3
(I2396
I554
I32
I128
tRp49
ag8
ag47
aI01
aI-1
aI0
aI-41
aI100
aa(lp50
g3
(I2545
I458
I32
I128
tRp51
ag8
ag47
aI01
aI-1
aI0
aI-42
aI100
aa(lp52
g3
(I2673
I497
I32
I160
tRp53
ag8
ag47
aI01
aI1
aI0
aI47
aI100
aa(lp54
g3
(I3206
I608
I32
I32
tRp55
aS'brick 3'
p56
aS'green mushroom'
p57
aI00
aI0
aI0
aI0
aI0
aa(lp58
g3
(I3338
I695
I32
I32
tRp59
ag56
ag57
aI00
aI0
aI0
aI0
aI0
aa(lp60
g3
(I3464
I749
I352
I32
tRp61
ag56
ag57
aI00
aI0
aI0
aI0
aI0
aa(lp62
g3
(I3763
I615
I32
I32
tRp63
ag46
ag57
aI00
aI0
aI0
aI0
aI0
aa(lp64
g3
(I3298
I494
I32
I32
tRp65
ag5
ag57
aI00
aI0
aI0
aI0
aI0
aa(lp66
g3
(I3474
I440
I288
I32
tRp67
ag5
ag57
aI00
aI0
aI0
aI0
aI0
aa(lp68
g3
(I3886
I541
I96
I16
tRp69
aS'moving platform 3'
p70
ag57
aI01
aI0
aI-1
aI-77
aI200
aa(lp71
g3
(I4019
I730
I32
I32
tRp72
ag8
ag57
aI00
aI0
aI0
aI0
aI0
aa(lp73
g3
(I2813
I525
I352
I64
tRp74
aS'block 1'
p75
aNaI00
aI0
aI0
aI0
aI0
aa.