(lp1
(lp2
S'red koopa'
p3
acpygame
__rect_constructor
p4
(I1512
I677
I32
I48
tRp5
aI-2
a(I32
I48
tp6
aI-15
aF1.5
aI0
aS'alive'
p7
aI00
aI2
aI1
aI301
aI301
aI2
aS'parabolic'
p8
aI00
aI0
aI1000000
aI01
aI0
aa(lp9
g3
ag4
(I1417
I676
I32
I48
tRp10
aI-2
ag6
aI-15
aF1.5
aI0
ag7
aI00
aI2
aI1
aI301
aI301
aI2
ag8
aI00
aI0
aI1000000
aI01
aI0
aa(lp11
g3
ag4
(I1338
I676
I32
I48
tRp12
aI-2
ag6
aI-15
aF1.5
aI0
ag7
aI00
aI2
aI1
aI301
aI301
aI2
ag8
aI00
aI0
aI1000000
aI01
aI0
aa(lp13
g3
ag4
(I1191
I674
I32
I48
tRp14
aI-2
ag6
aI-15
aF1.5
aI0
ag7
aI00
aI2
aI1
aI301
aI301
aI2
ag8
aI00
aI0
aI1000000
aI01
aI0
aa(lp15
g3
ag4
(I1089
I676
I32
I48
tRp16
aI-2
ag6
aI-15
aF1.5
aI0
ag7
aI00
aI2
aI1
aI301
aI301
aI2
ag8
aI00
aI0
aI1000000
aI01
aI0
aa(lp17
g3
ag4
(I969
I677
I32
I48
tRp18
aI-2
ag6
aI-15
aF1.5
aI0
ag7
aI00
aI2
aI1
aI301
aI301
aI2
ag8
aI00
aI0
aI1000000
aI01
aI0
aa(lp19
S'flying koopa green'
p20
ag4
(I1650
I537
I54
I75
tRp21
aI3
a(I54
I75
tp22
aI-15
aF1.5
aI0
aS'flying'
p23
aI00
aI2
aI1
aI301
aI301
aI1
ag8
aI00
aI0
aI100
aI01
aI0
aa(lp24
S'piranha plant'
p25
ag4
(I3193
I586
I32
I48
tRp26
aI-2
a(I32
I48
tp27
aI-15
aI0
aI0
ag23
aI00
aI2
aI1
aI301
aI301
aI2
ag8
aI00
aI0
aI100
aI00
aI100
aa(lp28
g20
ag4
(I4306
I477
I54
I75
tRp29
aI3
ag22
aI-15
aF1.5
aI0
ag23
aI00
aI2
aI1
aI301
aI301
aI1
ag8
aI00
aI0
aI100
aI01
aI0
aa(lp30
g25
ag4
(I4753
I547
I32
I48
tRp31
aI-2
ag27
aI-15
aI0
aI0
ag23
aI00
aI2
aI1
aI301
aI301
aI2
ag8
aI00
aI0
aI100
aI00
aI100
aa(lp32
S'spiny thing'
p33
ag4
(I689
I637
I32
I32
tRp34
aI-5
a(I32
I32
tp35
aI-15
aI0
aI0
ag7
aI00
aI2
aI1
aI301
aI301
aI2
ag8
aI00
aI0
aI10000
aI00
aI0
aa(lp36
g33
ag4
(I584
I638
I32
I32
tRp37
aI-5
ag35
aI-15
aI0
aI0
ag7
aI00
aI2
aI1
aI301
aI301
aI2
ag8
aI00
aI0
aI10000
aI00
aI0
aa(lp38
S'koopa'
p39
ag4
(I2201
I512
I32
I48
tRp40
aI-2
a(I32
I48
tp41
aI-15
aF1.5
aI0
ag7
aI00
aI2
aI1
aI301
aI301
aI2
ag8
aI00
aI0
aI200000
aI01
aI0
aa(lp42
g39
ag4
(I2069
I512
I32
I48
tRp43
aI-2
ag41
aI-15
aF1.5
aI0
ag7
aI00
aI2
aI1
aI301
aI301
aI2
ag8
aI00
aI0
aI200000
aI01
aI0
aa(lp44
g39
ag4
(I1931
I512
I32
I48
tRp45
aI-2
ag41
aI-15
aF1.5
aI0
ag7
aI00
aI2
aI1
aI301
aI301
aI2
ag8
aI00
aI0
aI200000
aI01
aI0
aa(lp46
g3
ag4
(I3705
I476
I32
I48
tRp47
aI-2
ag6
aI-15
aF1.5
aI0
ag7
aI00
aI2
aI1
aI301
aI301
aI2
ag8
aI00
aI0
aI1000000
aI01
aI0
aa(lp48
g3
ag4
(I4511
I404
I32
I48
tRp49
aI-2
ag6
aI-15
aF1.5
aI0
ag7
aI00
aI2
aI1
aI301
aI301
aI2
ag8
aI00
aI0
aI1000000
aI01
aI0
aa(lp50
g20
ag4
(I4942
I495
I54
I75
tRp51
aI3
ag22
aI-15
aF1.5
aI0
ag23
aI00
aI2
aI1
aI301
aI301
aI1
ag8
aI00
aI0
aI100
aI01
aI0
aa(lp52
S'podoboo'
p53
ag4
(I1076
I597
I32
I48
tRp54
aI-3
a(I32
I48
tp55
aI-15
aF1.5
aI0
aS'flying'
p56
aI00
aI2
aI1
aI301
aI301
aI2
aS'parabolic'
p57
aI00
aI0
aI200
aI00
aI100
aa(lp58
g53
ag4
(I1229
I597
I32
I48
tRp59
aI-3
ag55
aI-15
aF1.5
aI0
ag56
aI00
aI2
aI1
aI301
aI301
aI2
ag57
aI00
aI0
aI200
aI00
aI100
aa.