(lp1
(lp2
I1625
aI412
a(lp3
(lp4
I0
aI107877
aa(lp5
I20
aI107877
aa(lp6
I40
aI107877
aa(lp7
I60
aI107877
aa(lp8
I80
aI107877
aa(lp9
I100
aI107877
aa(lp10
I120
aI107877
aaaa(lp11
I2448
aI638
a(lp12
(lp13
I0
aI81036
aa(lp14
I20
aI81036
aa(lp15
I40
aI81036
aa(lp16
I60
aI81036
aaaa.