(lp1
(lp2
cpygame
__rect_constructor
p3
(I25
I649
I960
I32
tRp4
aS'grass'
p5
aNaI00
aI0
aI0
aI0
aI0
aa(lp6
g3
(I154
I615
I32
I32
tRp7
aS'cloud'
p8
aNaI00
aI0
aI0
aI0
aI0
aa(lp9
g3
(I153
I584
I32
I32
tRp10
ag8
aNaI00
aI0
aI0
aI0
aI0
aa(lp11
g3
(I740
I617
I32
I32
tRp12
ag8
aNaI00
aI0
aI0
aI0
aI0
aa(lp13
g3
(I740
I585
I32
I32
tRp14
ag8
aNaI00
aI0
aI0
aI0
aI0
aa(lp15
g3
(I613
I523
I32
I32
tRp16
ag8
aNaI00
aI0
aI0
aI0
aI0
aa(lp17
g3
(I529
I452
I32
I32
tRp18
ag8
aNaI00
aI0
aI0
aI0
aI0
aa(lp19
g3
(I456
I388
I32
I32
tRp20
ag8
aNaI00
aI0
aI0
aI0
aI0
aa(lp21
g3
(I521
I318
I32
I32
tRp22
aS'question block'
p23
aNaI00
aI0
aI0
aI0
aI0
aa(lp24
g3
(I314
I479
I32
I32
tRp25
ag23
aS'mushroom'
p26
aI00
aI0
aI0
aI0
aI0
aa(lp27
g3
(I387
I617
I32
I32
tRp28
aS'lava'
p29
ag26
aI00
aI0
aI0
aI0
aI0
aa(lp30
g3
(I575
I616
I32
I32
tRp31
ag29
ag26
aI00
aI0
aI0
aI0
aI0
aa(lp32
g3
(I741
I553
I32
I32
tRp33
ag29
ag26
aI00
aI0
aI0
aI0
aI0
aa(lp34
g3
(I809
I618
I32
I32
tRp35
ag29
ag26
aI00
aI0
aI0
aI0
aI0
aa(lp36
g3
(I775
I616
I32
I32
tRp37
ag29
ag26
aI00
aI0
aI0
aI0
aI0
aa(lp38
g3
(I1005
I568
I32
I32
tRp39
aS'moving platform'
p40
ag26
aI01
aI-2
aI-2
aI-16
aI100
aa.