(lp1
(lp2
S'dry bones'
p3
acpygame
__rect_constructor
p4
(I634
I539
I54
I87
tRp5
aI-2
a(I54
I87
tp6
aI-15
aI0
aI0
aS'alive'
p7
aI00
aI2
aI1
aI301
aI301
aI2
aS'parabolic'
p8
aI00
aI0
aI10000
aI00
aI100
aa(lp9
g3
ag4
(I527
I536
I54
I87
tRp10
aI-2
ag6
aI-15
aI0
aI0
ag7
aI00
aI2
aI1
aI301
aI301
aI2
ag8
aI00
aI0
aI10000
aI00
aI100
aa(lp11
S'hammer bros'
p12
ag4
(I2402
I425
I32
I48
tRp13
aI-1
a(I32
I48
tp14
aI-15
aI0
aI0
ag7
aI00
aI2
aI99
aI4
aI13
aI1
ag8
aI00
aI0
aI10000
aI01
aI0
aa(lp15
g12
ag4
(I2246
I425
I32
I48
tRp16
aI-1
ag14
aI-15
aI0
aI0
ag7
aI00
aI2
aI99
aI4
aI13
aI1
ag8
aI00
aI0
aI10000
aI01
aI0
aa(lp17
S'podoboo'
p18
ag4
(I1491
I552
I32
I48
tRp19
aI-3
a(I32
I48
tp20
aI-15
aF1.5
aI0
aS'flying'
p21
aI00
aI2
aI1
aI301
aI301
aI2
ag8
aI00
aI0
aI200
aI00
aI100
aa(lp22
g18
ag4
(I1674
I501
I32
I48
tRp23
aI-3
ag20
aI-15
aF1.5
aI0
ag21
aI00
aI2
aI1
aI301
aI301
aI2
ag8
aI00
aI0
aI200
aI00
aI100
aa(lp24
g18
ag4
(I1842
I462
I32
I48
tRp25
aI-3
ag20
aI-15
aF1.5
aI0
ag21
aI00
aI2
aI1
aI301
aI301
aI2
ag8
aI00
aI0
aI200
aI00
aI100
aa(lp26
S'piranha plant'
p27
ag4
(I2013
I509
I32
I48
tRp28
aI-2
a(I32
I48
tp29
aI-15
aI0
aI0
ag21
aI00
aI2
aI1
aI301
aI301
aI2
ag8
aI00
aI0
aI100
aI00
aI100
aa(lp30
S'buzzy beetle'
p31
ag4
(I1394
I586
I32
I32
tRp32
aI-1
a(I32
I32
tp33
aI-15
aI0
aI0
ag7
aI00
aI2
aI1
aI301
aI301
aI2
ag8
aI00
aI0
aI10000
aI01
aI1000
aa(lp34
g31
ag4
(I1270
I586
I32
I32
tRp35
aI-1
ag33
aI-15
aI0
aI0
ag7
aI00
aI2
aI1
aI301
aI301
aI2
ag8
aI00
aI0
aI10000
aI01
aI1000
aa(lp36
g31
ag4
(I3852
I469
I32
I32
tRp37
aI-1
ag33
aI-15
aI0
aI0
ag7
aI00
aI2
aI1
aI301
aI301
aI2
ag8
aI00
aI0
aI10000
aI01
aI1000
aa(lp38
g31
ag4
(I3770
I469
I32
I32
tRp39
aI-1
ag33
aI-15
aI0
aI0
ag7
aI00
aI2
aI1
aI301
aI301
aI2
ag8
aI00
aI0
aI10000
aI01
aI1000
aa(lp40
g31
ag4
(I3668
I470
I32
I32
tRp41
aI-1
ag33
aI-15
aI0
aI0
ag7
aI00
aI2
aI1
aI301
aI301
aI2
ag8
aI00
aI0
aI10000
aI01
aI1000
aa(lp42
S'bowser'
p43
ag4
(I4503
I322
I102
I102
tRp44
aI-2
a(I102
I102
tp45
aI-15
aI0
aI0
ag7
aI00
aI2
aI4
aI25
aI10
aI2
ag8
aI00
aI0
aI1000000
aI00
aI10
aa(lp46
g18
ag4
(I4153
I586
I32
I48
tRp47
aI-3
ag20
aI-15
aF1.5
aI0
ag21
aI00
aI2
aI1
aI301
aI301
aI2
ag8
aI00
aI0
aI200
aI00
aI100
aa(lp48
g18
ag4
(I4343
I590
I32
I48
tRp49
aI-3
ag20
aI-15
aF1.5
aI0
ag21
aI00
aI2
aI1
aI301
aI301
aI2
ag8
aI00
aI0
aI200
aI00
aI100
aa(lp50
g18
ag4
(I4532
I582
I32
I48
tRp51
aI-3
ag20
aI-15
aF1.5
aI0
ag21
aI00
aI2
aI1
aI301
aI301
aI2
ag8
aI00
aI0
aI200
aI00
aI100
aa(lp52
S'red koopa'
p53
ag4
(I4923
I586
I32
I48
tRp54
aI-2
a(I32
I48
tp55
aI-15
aF1.5
aI0
ag7
aI00
aI2
aI1
aI301
aI301
aI2
ag8
aI00
aI0
aI1000000
aI01
aI0
aa(lp56
g53
ag4
(I5170
I506
I32
I48
tRp57
aI-2
ag55
aI-15
aF1.5
aI0
ag7
aI00
aI2
aI1
aI301
aI301
aI2
ag8
aI00
aI0
aI1000000
aI01
aI0
aa(lp58
g12
ag4
(I5583
I397
I32
I48
tRp59
aI-1
ag14
aI-15
aI0
aI0
ag7
aI00
aI2
aI99
aI4
aI13
aI1
ag8
aI00
aI0
aI10000
aI01
aI0
aa(lp60
g53
ag4
(I5384
I438
I32
I48
tRp61
aI-2
ag55
aI-15
aF1.5
aI0
ag7
aI00
aI2
aI1
aI301
aI301
aI2
ag8
aI00
aI0
aI1000000
aI01
aI0
aa(lp62
g18
ag4
(I6056
I495
I32
I48
tRp63
aI-3
ag20
aI-15
aF1.5
aI0
ag21
aI00
aI2
aI1
aI301
aI301
aI2
ag8
aI00
aI0
aI200
aI00
aI100
aa(lp64
g18
ag4
(I6210
I494
I32
I48
tRp65
aI-3
ag20
aI-15
aF1.5
aI0
ag21
aI00
aI2
aI1
aI301
aI301
aI2
ag8
aI00
aI0
aI200
aI00
aI100
aa(lp66
g18
ag4
(I6357
I493
I32
I48
tRp67
aI-3
ag20
aI-15
aF1.5
aI0
ag21
aI00
aI2
aI1
aI301
aI301
aI2
ag8
aI00
aI0
aI200
aI00
aI100
aa(lp68
g18
ag4
(I6480
I494
I32
I48
tRp69
aI-3
ag20
aI-15
aF1.5
aI0
ag21
aI00
aI2
aI1
aI301
aI301
aI2
ag8
aI00
aI0
aI200
aI00
aI100
aa(lp70
g43
ag4
(I6618
I307
I102
I102
tRp71
aI-2
ag45
aI-15
aI0
aI0
ag7
aI00
aI2
aI4
aI25
aI10
aI2
ag8
aI00
aI0
aI1000000
aI00
aI10
aa(lp72
g43
ag4
(I6187
I282
I102
I102
tRp73
aI-2
ag45
aI-15
aI0
aI0
ag7
aI00
aI2
aI4
aI25
aI10
aI2
ag8
aI00
aI0
aI1000000
aI00
aI10
aa(lp74
g43
ag4
(I6944
I544
I102
I102
tRp75
aI-2
ag45
aI-15
aI0
aI0
ag7
aI00
aI2
aI4
aI25
aI10
aI2
ag8
aI00
aI0
aI1000000
aI00
aI10
aa.