(lp1
(lp2
S'koopa'
p3
acpygame
__rect_constructor
p4
(I498
I633
I32
I48
tRp5
aI-2
a(I32
I48
tp6
aI-15
aF1.5
aI0
aS'alive'
p7
aI00
aI2
aI1
aI301
aI301
aI2
aS'parabolic'
p8
aI00
aI0
aI200000
aI01
aI0
aa(lp9
g3
ag4
(I585
I634
I32
I48
tRp10
aI-2
ag6
aI-15
aF1.5
aI0
ag7
aI00
aI2
aI1
aI301
aI301
aI2
ag8
aI00
aI0
aI200000
aI01
aI0
aa(lp11
g3
ag4
(I681
I635
I32
I48
tRp12
aI-2
ag6
aI-15
aF1.5
aI0
ag7
aI00
aI2
aI1
aI301
aI301
aI2
ag8
aI00
aI0
aI200000
aI01
aI0
aa(lp13
S'red koopa'
p14
ag4
(I853
I635
I32
I48
tRp15
aI-2
a(I32
I48
tp16
aI-15
aF1.5
aI0
ag7
aI00
aI2
aI1
aI301
aI301
aI2
ag8
aI00
aI0
aI1000000
aI01
aI0
aa(lp17
S'hammer bros'
p18
ag4
(I1536
I403
I32
I48
tRp19
aI-1
a(I32
I48
tp20
aI-15
aI0
aI0
ag7
aI00
aI2
aI99
aI4
aI13
aI1
ag8
aI00
aI0
aI10000
aI01
aI0
aa(lp21
g3
ag4
(I2228
I649
I32
I48
tRp22
aI-2
ag6
aI-15
aF1.5
aI0
ag7
aI00
aI2
aI1
aI301
aI301
aI2
ag8
aI00
aI0
aI200000
aI01
aI0
aa(lp23
g3
ag4
(I2161
I645
I32
I48
tRp24
aI-2
ag6
aI-15
aF1.5
aI0
ag7
aI00
aI2
aI1
aI301
aI301
aI2
ag8
aI00
aI0
aI200000
aI01
aI0
aa(lp25
g3
ag4
(I2086
I645
I32
I48
tRp26
aI-2
ag6
aI-15
aF1.5
aI0
ag7
aI00
aI2
aI1
aI301
aI301
aI2
ag8
aI00
aI0
aI200000
aI01
aI0
aa(lp27
g18
ag4
(I3711
I697
I32
I48
tRp28
aI-1
ag20
aI-15
aI0
aI0
ag7
aI00
aI2
aI99
aI4
aI13
aI1
ag8
aI00
aI0
aI10000
aI01
aI0
aa(lp29
g14
ag4
(I3725
I393
I32
I48
tRp30
aI-2
ag16
aI-15
aF1.5
aI0
ag7
aI00
aI2
aI1
aI301
aI301
aI2
ag8
aI00
aI0
aI1000000
aI01
aI0
aa(lp31
S'buzzy beetle'
p32
ag4
(I2060
I391
I32
I32
tRp33
aI-1
a(I32
I32
tp34
aI-15
aI0
aI0
ag7
aI00
aI2
aI1
aI301
aI301
aI2
ag8
aI00
aI0
aI10000
aI01
aI1000
aa(lp35
g32
ag4
(I288
I653
I32
I32
tRp36
aI-1
ag34
aI-15
aI0
aI0
ag7
aI00
aI2
aI1
aI301
aI301
aI2
ag8
aI00
aI0
aI10000
aI01
aI1000
aa(lp37
S'kuribos goomba'
p38
ag4
(I3117
I448
I54
I78
tRp39
aI-5
a(I54
I78
tp40
aI-15
aF-1.5
aI0
aS'alive'
p41
aI00
aI2
aI301
aI15
aI301
aI2
aS'parabolic'
p42
aI00
aI0
aI10000
aI01
aI0
aa.