(lp1
(lp2
S'bowser'
p3
acpygame
__rect_constructor
p4
(I940
I497
I102
I102
tRp5
aI-2
a(I102
I102
tp6
aI-15
aI0
aI0
aS'alive'
p7
aI00
aI2
aI4
aI25
aI10
aI2
aS'parabolic'
p8
aI00
aI0
aI1000000
aI00
aI10
aa(lp9
g3
ag4
(I1360
I497
I102
I102
tRp10
aI-2
ag6
aI-15
aI0
aI0
ag7
aI00
aI2
aI4
aI25
aI10
aI2
ag8
aI00
aI0
aI1000000
aI00
aI10
aa(lp11
g3
ag4
(I1691
I496
I102
I102
tRp12
aI-2
ag6
aI-15
aI0
aI0
ag7
aI00
aI2
aI4
aI25
aI10
aI2
ag8
aI00
aI0
aI1000000
aI00
aI10
aa(lp13
g3
ag4
(I1917
I497
I102
I102
tRp14
aI-2
ag6
aI-15
aI0
aI0
ag7
aI00
aI2
aI4
aI25
aI10
aI2
ag8
aI00
aI0
aI1000000
aI00
aI10
aa(lp15
S'podoboo'
p16
ag4
(I807
I585
I32
I48
tRp17
aI-3
a(I32
I48
tp18
aI-15
aF1.5
aI0
aS'flying'
p19
aI00
aI2
aI1
aI301
aI301
aI2
ag8
aI00
aI0
aI200
aI00
aI100
aa(lp20
g16
ag4
(I1204
I540
I32
I48
tRp21
aI-3
ag18
aI-15
aF1.5
aI0
ag19
aI00
aI2
aI1
aI301
aI301
aI2
ag8
aI00
aI0
aI200
aI00
aI100
aa(lp22
g16
ag4
(I1595
I555
I32
I48
tRp23
aI-3
ag18
aI-15
aF1.5
aI0
ag19
aI00
aI2
aI1
aI301
aI301
aI2
ag8
aI00
aI0
aI200
aI00
aI100
aa(lp24
g16
ag4
(I1859
I567
I32
I48
tRp25
aI-3
ag18
aI-15
aF1.5
aI0
ag19
aI00
aI2
aI1
aI301
aI301
aI2
ag8
aI00
aI0
aI200
aI00
aI100
aa.