(lp1
(lp2
cpygame
__rect_constructor
p3
(I1688
I417
I48
I16
tRp4
aS'fireball'
p5
aNaNaNaNaNaNaNaa(lp6
g3
(I1545
I631
I48
I16
tRp7
ag5
aNaNaNaNaNaNaNaa(lp8
g3
(I7252
I438
I46
I305
tRp9
aS'flag'
p10
aNaNaNaNaNaNaNaa.