(lp1
(lp2
S'cobrat'
p3
acpygame
__rect_constructor
p4
(I793
I578
I54
I102
tRp5
aI-4
a(I54
I102
tp6
aI-15
aF1.5
aI0
aS'alive'
p7
aI00
aI2
aI1
aI301
aI301
aI1
aS'parabolic'
p8
aI00
aI0
aI10000
aI01
aI0
aa(lp9
S'koopa'
p10
ag4
(I2185
I653
I32
I48
tRp11
aI-5
a(I32
I48
tp12
aI-10
aF1.5
aI0
ag7
aI00
aI2
aI1
aI301
aI301
aI2
ag8
aI00
aI0
aI10000
aI01
aI0
aa(lp13
g10
ag4
(I1875
I658
I32
I48
tRp14
aI-5
ag12
aI-10
aF1.5
aI0
ag7
aI00
aI2
aI1
aI301
aI301
aI2
ag8
aI00
aI0
aI10000
aI01
aI0
aa(lp15
S'piranha plant'
p16
ag4
(I2108
I578
I32
I48
tRp17
aI-2
a(I32
I48
tp18
aI-15
aI0
aI0
aS'flying'
p19
aI00
aI2
aI1
aI301
aI301
aI2
ag8
aI00
aI0
aI100
aI00
aI100
aa(lp20
S'flying koopa green'
p21
ag4
(I2671
I488
I54
I75
tRp22
aI3
a(I54
I75
tp23
aI-15
aF1.5
aI0
ag19
aI00
aI2
aI1
aI301
aI301
aI1
ag8
aI00
aI0
aI100
aI01
aI0
aa(lp24
S'red koopa flying'
p25
ag4
(I3119
I454
I32
I48
tRp26
aI-2
a(I32
I48
tp27
aI-15
aF-1.5
aI0
ag7
aI00
aI2
aI1
aI40
aI301
aI2
ag8
aI00
aI0
aI200
aI01
aI0
aa(lp28
S'buzzy beetle'
p29
ag4
(I1452
I507
I32
I32
tRp30
aI-1
a(I32
I32
tp31
aI-15
aI0
aI0
ag7
aI00
aI2
aI1
aI301
aI301
aI2
ag8
aI00
aI0
aI10000
aI01
aI1000
aa(lp32
g29
ag4
(I1377
I507
I32
I32
tRp33
aI-1
ag31
aI-15
aI0
aI0
ag7
aI00
aI2
aI1
aI301
aI301
aI2
ag8
aI00
aI0
aI10000
aI01
aI1000
aa(lp34
g29
ag4
(I1088
I593
I32
I32
tRp35
aI-1
ag31
aI-15
aI0
aI0
ag7
aI00
aI2
aI1
aI301
aI301
aI2
ag8
aI00
aI0
aI10000
aI01
aI1000
aa(lp36
S'piranha plant'
p37
ag4
(I2597
I719
I32
I48
tRp38
aI-2
a(I32
I48
tp39
aI-15
aI0
aI0
aS'flying'
p40
aI00
aI2
aI1
aI301
aI301
aI2
aS'parabolic'
p41
aI00
aI0
aI100
aI00
aI100
aa(lp42
g37
ag4
(I2315
I728
I32
I48
tRp43
aI-2
ag39
aI-15
aI0
aI0
ag40
aI00
aI2
aI1
aI301
aI301
aI2
ag41
aI00
aI0
aI100
aI00
aI100
aa(lp44
g37
ag4
(I2950
I730
I32
I48
tRp45
aI-2
ag39
aI-15
aI0
aI0
ag40
aI00
aI2
aI1
aI301
aI301
aI2
ag41
aI00
aI0
aI100
aI00
aI100
aa(lp46
S'podoboo'
p47
ag4
(I3644
I633
I32
I48
tRp48
aI-3
a(I32
I48
tp49
aI-15
aF1.5
aI0
ag40
aI00
aI2
aI1
aI301
aI301
aI2
ag41
aI00
aI0
aI200
aI00
aI100
aa(lp50
g47
ag4
(I3408
I558
I32
I48
tRp51
aI-3
ag49
aI-15
aF1.5
aI0
ag40
aI00
aI2
aI1
aI301
aI301
aI2
ag41
aI00
aI0
aI200
aI00
aI100
aa.