(lp1
(lp2
cpygame
__rect_constructor
p3
(I403
I571
I96
I128
tRp4
aS'mushroom platform'
p5
aNaI00
aI0
aI0
aI0
aI0
aa(lp6
g3
(I643
I518
I96
I128
tRp7
ag5
aNaI00
aI0
aI0
aI0
aI0
aa(lp8
g3
(I860
I458
I96
I128
tRp9
ag5
aNaI00
aI0
aI0
aI0
aI0
aa(lp10
g3
(I1094
I409
I96
I128
tRp11
ag5
aNaI00
aI0
aI0
aI0
aI0
aa(lp12
g3
(I1411
I438
I224
I32
tRp13
aS'block 1'
p14
aNaI01
aI0
aI-2
aI12
aI100
aa(lp15
g3
(I2205
I512
I288
I32
tRp16
aS'grass'
p17
aNaI00
aI0
aI0
aI0
aI0
aa(lp18
g3
(I2579
I627
I288
I32
tRp19
ag17
aNaI00
aI0
aI0
aI0
aI0
aa(lp20
g3
(I167
I458
I192
I32
tRp21
ag14
aNaI00
aI0
aI0
aI0
aI0
aa(lp22
g3
(I189
I373
I32
I32
tRp23
aS'question block'
p24
aS'flower'
p25
aI00
aI0
aI0
aI0
aI0
aa(lp26
g3
(I1839
I431
I64
I64
tRp27
aS'pipe'
p28
aNaI00
aI0
aI0
aI0
aI0
aa(lp29
g3
(I1978
I432
I64
I64
tRp30
ag28
aNaI00
aI0
aI0
aI0
aI0
aa.