(lp1
(lp2
cpygame
__rect_constructor
p3
(I3335
I665
I512
I64
tRp4
aS'brick 3'
p5
aNaI00
aI0
aI0
aI0
aI0
aa(lp6
g3
(I3999
I607
I32
I32
tRp7
aS'brick 1'
p8
aS'mushroom'
p9
aI00
aI0
aI0
aI0
aI0
aa(lp10
g3
(I4198
I514
I32
I32
tRp11
ag8
ag9
aI00
aI0
aI0
aI0
aI0
aa(lp12
g3
(I4378
I491
I352
I32
tRp13
ag8
ag9
aI00
aI0
aI0
aI0
aI0
aa(lp14
g3
(I4905
I541
I96
I128
tRp15
aS'mushroom platform'
p16
aS'flower'
p17
aI00
aI0
aI0
aI0
aI0
aa(lp18
g3
(I2816
I575
I352
I32
tRp19
aS'grass'
p20
ag17
aI01
aI0
aI-1
aI-57
aI100
aa(lp21
g3
(I2501
I517
I96
I16
tRp22
aS'moving platform 3'
p23
ag17
aI01
aI0
aI-1
aI-4
aI50
aa(lp24
g3
(I2139
I505
I96
I16
tRp25
ag23
ag17
aI01
aI0
aI-1
aI-21
aI100
aa(lp26
g3
(I1874
I571
I32
I27
tRp27
aS'trampoline'
p28
aNaI00
aI0
aI0
aI0
aI0
aa(lp29
g3
(I1537
I597
I128
I160
tRp30
aS'brick 4'
p31
ag17
aI00
aI0
aI0
aI0
aI0
aa(lp32
g3
(I1210
I595
I96
I160
tRp33
ag31
ag17
aI00
aI0
aI0
aI0
aI0
aa(lp34
g3
(I936
I589
I96
I160
tRp35
ag31
ag17
aI00
aI0
aI0
aI0
aI0
aa(lp36
g3
(I1429
I454
I32
I32
tRp37
aS'block 1'
p38
ag17
aI00
aI0
aI0
aI0
aI0
aa(lp39
g3
(I1317
I405
I32
I32
tRp40
ag38
ag17
aI00
aI0
aI0
aI0
aI0
aa(lp41
g3
(I1131
I397
I32
I32
tRp42
ag38
ag17
aI00
aI0
aI0
aI0
aI0
aa(lp43
g3
(I907
I391
I32
I32
tRp44
ag38
ag17
aI00
aI0
aI0
aI0
aI0
aa(lp45
g3
(I695
I388
I32
I32
tRp46
ag38
ag17
aI00
aI0
aI0
aI0
aI0
aa(lp47
g3
(I482
I389
I32
I32
tRp48
ag38
ag17
aI00
aI0
aI0
aI0
aI0
aa(lp49
g3
(I479
I600
I320
I64
tRp50
ag20
ag17
aI00
aI0
aI0
aI0
aI0
aa(lp51
g3
(I105
I604
I288
I64
tRp52
ag5
ag17
aI00
aI0
aI0
aI0
aI0
aa(lp53
g3
(I127
I469
I32
I32
tRp54
aS'question block'
p55
ag17
aI00
aI0
aI0
aI0
aI0
aa(lp56
g3
(I227
I470
I32
I32
tRp57
ag55
aS'hammer'
p58
aI00
aI0
aI0
aI0
aI0
aa(lp59
g3
(I325
I472
I32
I32
tRp60
ag55
aS'green mushroom'
p61
aI00
aI0
aI0
aI0
aI0
aa(lp62
g3
(I1411
I676
I32
I32
tRp63
aS'brick 4'
p64
aNaI00
aI0
aI0
aI0
aI0
aa(lp65
g3
(I5132
I548
I96
I128
tRp66
aS'mushroom platform'
p67
aNaI00
aI0
aI0
aI0
aI0
aa(lp68
g3
(I5396
I549
I96
I128
tRp69
ag67
aNaI00
aI0
aI0
aI0
aI0
aa.