(lp1
(lp2
S'bowser'
p3
acpygame
__rect_constructor
p4
(I2322
I588
I102
I102
tRp5
aI-2
a(I102
I102
tp6
aI-15
aI0
aI0
aS'alive'
p7
aI00
aI2
aI4
aI25
aI10
aI2
aS'parabolic'
p8
aI00
aI0
aI1000000
aI00
aI10
aa.