(lp1
(lp2
cpygame
__rect_constructor
p3
(I1125
I362
I32
I32
tRp4
aS'coin'
p5
aNaNaNaNaNaNaNaa(lp6
g3
(I1226
I365
I32
I32
tRp7
ag5
aNaNaNaNaNaNaNaa(lp8
g3
(I1127
I367
I32
I32
tRp9
ag5
aNaNaNaNaNaNaNaa(lp10
g3
(I1165
I392
I32
I32
tRp11
ag5
aNaNaNaNaNaNaNaa(lp12
g3
(I1166
I328
I32
I32
tRp13
ag5
aNaNaNaNaNaNaNaa(lp14
g3
(I1303
I364
I32
I32
tRp15
ag5
aNaNaNaNaNaNaNaa(lp16
g3
(I1247
I335
I32
I32
tRp17
ag5
aNaNaNaNaNaNaNaa(lp18
g3
(I1271
I369
I32
I32
tRp19
ag5
aNaNaNaNaNaNaNaa(lp20
g3
(I1037
I415
I384
I32
tRp21
aS'spark'
p22
aI2
aI2
aI0
aI0
aI01
ag3
(I1294
I462
I54
I54
tRp23
aI01
aa(lp24
g3
(I4709
I453
I46
I305
tRp25
aS'flag'
p26
aNaNaNaNaNaNaNaa(lp27
g3
(I4288
I569
I32
I32
tRp28
ag5
aNaNaNaNaNaNaNaa(lp29
g3
(I4433
I497
I32
I32
tRp30
ag5
aNaNaNaNaNaNaNaa(lp31
g3
(I4566
I423
I32
I32
tRp32
ag5
aNaNaNaNaNaNaNaa(lp33
g3
(I3032
I598
I32
I32
tRp34
aS'trampoline'
p35
aNaNaNaNaNaNaNaa(lp36
g3
(I3313
I600
I32
I32
tRp37
ag35
aNaNaNaNaNaNaNaa(lp38
g3
(I3562
I580
I32
I32
tRp39
ag35
aNaNaNaNaNaNaNaa.