(lp1
(lp2
I2001
aI555
a(lp3
(lp4
I0
aI44910
aa(lp5
I20
aI44910
aa(lp6
I40
aI44910
aa(lp7
I60
aI44910
aa(lp8
I80
aI44910
aa(lp9
I100
aI44910
aa(lp10
I120
aI44910
aa(lp11
I140
aI44910
aa(lp12
I160
aI44910
aa(lp13
I180
aI44910
aaaa.