(lp1
(lp2
cpygame
__rect_constructor
p3
(I486
I659
I352
I64
tRp4
aS'cloud'
p5
aNaI00
aI0
aI0
aI0
aI0
aa(lp6
g3
(I944
I589
I32
I32
tRp7
ag5
aNaI00
aI0
aI0
aI0
aI0
aa(lp8
g3
(I1069
I527
I32
I32
tRp9
ag5
aNaI00
aI0
aI0
aI0
aI0
aa(lp10
g3
(I1194
I472
I32
I32
tRp11
ag5
aNaI00
aI0
aI0
aI0
aI0
aa(lp12
g3
(I681
I528
I32
I32
tRp13
aS'question block'
p14
aS'mushroom'
p15
aI00
aI0
aI0
aI0
aI0
aa(lp16
g3
(I1360
I539
I96
I128
tRp17
aS'mushroom platform'
p18
ag15
aI00
aI0
aI0
aI0
aI0
aa(lp19
g3
(I1631
I541
I96
I128
tRp20
ag18
ag15
aI00
aI0
aI0
aI0
aI0
aa(lp21
g3
(I1990
I564
I32
I27
tRp22
aS'trampoline'
p23
aNaI00
aI0
aI0
aI0
aI0
aa(lp24
g3
(I2248
I552
I256
I64
tRp25
ag5
ag15
aI00
aI0
aI0
aI0
aI0
aa(lp26
g3
(I2635
I488
I32
I32
tRp27
aS'block 1'
p28
ag15
aI00
aI0
aI0
aI0
aI0
aa(lp29
g3
(I2769
I452
I96
I32
tRp30
ag28
ag15
aI00
aI0
aI0
aI0
aI0
aa(lp31
g3
(I2740
I599
I32
I32
tRp32
ag28
ag15
aI00
aI0
aI0
aI0
aI0
aa(lp33
g3
(I2850
I694
I32
I32
tRp34
ag28
ag15
aI00
aI0
aI0
aI0
aI0
aa(lp35
g3
(I1891
I729
I320
I32
tRp36
ag28
ag15
aI00
aI0
aI0
aI0
aI0
aa(lp37
g3
(I2123
I608
I32
I32
tRp38
ag14
aS'flower'
p39
aI00
aI0
aI0
aI0
aI0
aa.