(lp1
(lp2
S'hammer bros'
p3
acpygame
__rect_constructor
p4
(I4675
I444
I32
I48
tRp5
aI-1
a(I32
I48
tp6
aI-15
aI0
aI0
aS'alive'
p7
aI00
aI2
aI99
aI4
aI13
aI1
aS'parabolic'
p8
aI00
aI0
aI10000
aI01
aI0
aa(lp9
g3
ag4
(I4951
I488
I32
I48
tRp10
aI-1
ag6
aI-15
aI0
aI0
ag7
aI00
aI2
aI99
aI4
aI13
aI1
ag8
aI00
aI0
aI10000
aI01
aI0
aa(lp11
S'piranha plant'
p12
ag4
(I3165
I670
I32
I48
tRp13
aI-2
a(I32
I48
tp14
aI-15
aI0
aI0
aS'flying'
p15
aI00
aI2
aI1
aI301
aI301
aI2
ag8
aI00
aI0
aI100
aI00
aI100
aa(lp16
g12
ag4
(I2911
I664
I32
I48
tRp17
aI-2
ag14
aI-15
aI0
aI0
ag15
aI00
aI2
aI1
aI301
aI301
aI2
ag8
aI00
aI0
aI100
aI00
aI100
aa(lp18
S'red koopa'
p19
ag4
(I585
I558
I32
I48
tRp20
aI-2
a(I32
I48
tp21
aI-15
aF1.5
aI0
ag7
aI00
aI2
aI1
aI301
aI301
aI2
ag8
aI00
aI0
aI1000000
aI01
aI0
aa(lp22
g19
ag4
(I699
I553
I32
I48
tRp23
aI-2
ag21
aI-15
aF1.5
aI0
ag7
aI00
aI2
aI1
aI301
aI301
aI2
ag8
aI00
aI0
aI1000000
aI01
aI0
aa(lp24
g12
ag4
(I1232
I468
I32
I48
tRp25
aI-2
ag14
aI-15
aI0
aI0
ag15
aI00
aI2
aI1
aI301
aI301
aI2
ag8
aI00
aI0
aI100
aI00
aI100
aa(lp26
g12
ag4
(I1002
I457
I32
I48
tRp27
aI-2
ag14
aI-15
aI0
aI0
ag15
aI00
aI2
aI1
aI301
aI301
aI2
ag8
aI00
aI0
aI100
aI00
aI100
aa(lp28
g12
ag4
(I798
I450
I32
I48
tRp29
aI-2
ag14
aI-15
aI0
aI0
ag15
aI00
aI2
aI1
aI301
aI301
aI2
ag8
aI00
aI0
aI100
aI00
aI100
aa(lp30
S'flying koopa green'
p31
ag4
(I2348
I540
I54
I75
tRp32
aI3
a(I54
I75
tp33
aI-15
aF1.5
aI0
ag15
aI00
aI2
aI1
aI301
aI301
aI1
ag8
aI00
aI0
aI100
aI01
aI0
aa(lp34
g31
ag4
(I4297
I554
I54
I75
tRp35
aI3
ag33
aI-15
aF1.5
aI0
ag15
aI00
aI2
aI1
aI301
aI301
aI1
ag8
aI00
aI0
aI100
aI01
aI0
aa(lp36
S'hammer bros'
p37
ag4
(I5194
I500
I32
I48
tRp38
aI-1
a(I32
I48
tp39
aI-15
aI0
aI0
aS'alive'
p40
aI00
aI2
aI99
aI4
aI13
aI1
aS'parabolic'
p41
aI00
aI0
aI10000
aI01
aI0
aa(lp42
g37
ag4
(I5457
I499
I32
I48
tRp43
aI-1
ag39
aI-15
aI0
aI0
ag40
aI00
aI2
aI99
aI4
aI13
aI1
ag41
aI00
aI0
aI10000
aI01
aI0
aa(lp44
S'snifit'
p45
ag4
(I1616
I542
I54
I54
tRp46
aI-1
a(I54
I54
tp47
aI-15
aI0
aI0
aS'alive'
p48
aI00
aI2
aI1
aI301
aI301
aI2
aS'parabolic'
p49
aI00
aI0
aI10000
aI01
aI0
aa.