(lp1
(lp2
S'buzzy beetle'
p3
acpygame
__rect_constructor
p4
(I1366
I451
I32
I32
tRp5
aI-1
a(I32
I32
tp6
aI-15
aI0
aI0
aS'alive'
p7
aI00
aI2
aI1
aI301
aI301
aI2
aS'parabolic'
p8
aI00
aI0
aI10000
aI01
aI1000
aa(lp9
S'hammer bros'
p10
ag4
(I2640
I480
I32
I48
tRp11
aI-1
a(I32
I48
tp12
aI-15
aI0
aI0
ag7
aI00
aI2
aI99
aI4
aI13
aI1
ag8
aI00
aI0
aI10000
aI01
aI0
aa(lp13
S'flying koopa green'
p14
ag4
(I2828
I502
I54
I75
tRp15
aI3
a(I54
I75
tp16
aI-15
aF1.5
aI0
aS'flying'
p17
aI00
aI2
aI1
aI301
aI301
aI1
ag8
aI00
aI0
aI100
aI01
aI0
aa(lp18
g14
ag4
(I4390
I478
I54
I75
tRp19
aI3
ag16
aI-15
aF1.5
aI0
ag17
aI00
aI2
aI1
aI301
aI301
aI1
ag8
aI00
aI0
aI100
aI01
aI0
aa(lp20
S'red koopa'
p21
ag4
(I1554
I696
I32
I48
tRp22
aI-2
a(I32
I48
tp23
aI-15
aF1.5
aI0
ag7
aI00
aI2
aI1
aI301
aI301
aI2
ag8
aI00
aI0
aI1000000
aI01
aI0
aa(lp24
g21
ag4
(I1384
I697
I32
I48
tRp25
aI-2
ag23
aI-15
aF1.5
aI0
ag7
aI00
aI2
aI1
aI301
aI301
aI2
ag8
aI00
aI0
aI1000000
aI01
aI0
aa(lp26
S'piranha plant'
p27
ag4
(I2108
I563
I32
I48
tRp28
aI-2
a(I32
I48
tp29
aI-15
aI0
aI0
aS'flying'
p30
aI00
aI2
aI1
aI301
aI301
aI2
aS'parabolic'
p31
aI00
aI0
aI100
aI00
aI100
aa(lp32
S'koopa'
p33
ag4
(I1026
I548
I32
I48
tRp34
aI-2
a(I32
I48
tp35
aI-15
aF1.5
aI0
aS'alive'
p36
aI00
aI2
aI1
aI301
aI301
aI2
ag31
aI00
aI0
aI200000
aI01
aI0
aa(lp37
g33
ag4
(I883
I548
I32
I48
tRp38
aI-2
ag35
aI-15
aF1.5
aI0
ag36
aI00
aI2
aI1
aI301
aI301
aI2
ag31
aI00
aI0
aI200000
aI01
aI0
aa(lp39
g33
ag4
(I721
I546
I32
I48
tRp40
aI-2
ag35
aI-15
aF1.5
aI0
ag36
aI00
aI2
aI1
aI301
aI301
aI2
ag31
aI00
aI0
aI200000
aI01
aI0
aa.