(lp1
(lp2
S'buzzy beetle'
p3
acpygame
__rect_constructor
p4
(I587
I660
I32
I32
tRp5
aI-1
a(I32
I32
tp6
aI-15
aI0
aI0
aS'alive'
p7
aI00
aI2
aI1
aI301
aI301
aI2
aS'parabolic'
p8
aI00
aI0
aI10000
aI01
aI1000
aa(lp9
g3
ag4
(I335
I660
I32
I32
tRp10
aI-1
ag6
aI-15
aI0
aI0
ag7
aI00
aI2
aI1
aI301
aI301
aI2
ag8
aI00
aI0
aI10000
aI01
aI1000
aa(lp11
S'piranha plant'
p12
ag4
(I571
I648
I32
I48
tRp13
aI-2
a(I32
I48
tp14
aI-15
aI0
aI0
aS'flying'
p15
aI00
aI2
aI1
aI301
aI301
aI2
ag8
aI00
aI0
aI100
aI00
aI100
aa(lp16
g12
ag4
(I445
I335
I32
I48
tRp17
aI-2
ag14
aI-15
aI0
aI0
ag15
aI00
aI2
aI1
aI301
aI301
aI2
ag8
aI00
aI0
aI100
aI00
aI100
aa(lp18
S'spiny thing'
p19
ag4
(I467
I445
I32
I32
tRp20
aI-3
a(I32
I32
tp21
aI-15
aI0
aI0
ag7
aI00
aI2
aI1
aI301
aI301
aI2
ag8
aI00
aI0
aI10000
aI00
aI0
aa(lp22
g19
ag4
(I337
I450
I32
I32
tRp23
aI-3
ag21
aI-15
aI0
aI0
ag7
aI00
aI2
aI1
aI301
aI301
aI2
ag8
aI00
aI0
aI10000
aI00
aI0
aa(lp24
S'red koopa flying'
p25
ag4
(I1429
I337
I32
I48
tRp26
aI-2
a(I32
I48
tp27
aI-15
aF-1.5
aI0
ag7
aI00
aI2
aI1
aI40
aI301
aI2
ag8
aI00
aI0
aI200
aI01
aI0
aa(lp28
g25
ag4
(I1156
I470
I32
I48
tRp29
aI-2
ag27
aI-15
aF-1.5
aI0
ag7
aI00
aI2
aI1
aI40
aI301
aI2
ag8
aI00
aI0
aI200
aI01
aI0
aa(lp30
g25
ag4
(I944
I352
I32
I48
tRp31
aI-2
ag27
aI-15
aF-1.5
aI0
ag7
aI00
aI2
aI1
aI40
aI301
aI2
ag8
aI00
aI0
aI200
aI01
aI0
aa(lp32
S'koopa'
p33
ag4
(I1768
I653
I32
I48
tRp34
aI-5
a(I32
I48
tp35
aI-10
aF1.5
aI0
ag7
aI00
aI2
aI1
aI301
aI301
aI2
ag8
aI00
aI0
aI10000
aI01
aI0
aa(lp36
S'red koopa'
p37
ag4
(I2123
I484
I32
I48
tRp38
aI-2
a(I32
I48
tp39
aI-15
aF1.5
aI0
ag7
aI00
aI2
aI1
aI301
aI301
aI2
ag8
aI00
aI0
aI100
aI01
aI0
aa.