(lp1
(lp2
cpygame
__rect_constructor
p3
(I499
I758
I4256
I32
tRp4
aS'grass'
p5
aNaI00
aI0
aI0
aI0
aI0
aa(lp6
g3
(I740
I629
I96
I128
tRp7
aS'mushroom platform'
p8
aNaI00
aI0
aI0
aI0
aI0
aa(lp9
g3
(I1037
I447
I384
I32
tRp10
aS'cloud'
p11
aNaI00
aI0
aI0
aI0
aI0
aa(lp12
g3
(I1782
I695
I64
I64
tRp13
aS'pipe'
p14
aNaI00
aI0
aI0
aI0
aI0
aa(lp15
g3
(I1562
I545
I32
I32
tRp16
aS'block 1'
p17
aNaI00
aI0
aI0
aI0
aI0
aa(lp18
g3
(I1780
I547
I32
I32
tRp19
ag17
aNaI00
aI0
aI0
aI0
aI0
aa(lp20
g3
(I2003
I465
I32
I32
tRp21
ag17
aNaI00
aI0
aI0
aI0
aI0
aa(lp22
g3
(I2135
I383
I448
I32
tRp23
ag11
aNaI00
aI0
aI0
aI0
aI0
aa(lp24
g3
(I2180
I305
I32
I32
tRp25
aS'question block'
p26
aS'flower'
p27
aI00
aI0
aI0
aI0
aI0
aa(lp28
g3
(I2330
I304
I32
I32
tRp29
ag26
ag27
aI00
aI0
aI0
aI0
aI0
aa(lp30
g3
(I2415
I754
I32
I32
tRp31
aS'lava'
p32
ag27
aI00
aI0
aI0
aI0
aI0
aa(lp33
g3
(I2446
I753
I32
I32
tRp34
ag32
ag27
aI00
aI0
aI0
aI0
aI0
aa(lp35
g3
(I2476
I755
I32
I32
tRp36
ag32
ag27
aI00
aI0
aI0
aI0
aI0
aa(lp37
g3
(I2715
I632
I96
I128
tRp38
ag8
ag27
aI00
aI0
aI0
aI0
aI0
aa(lp39
g3
(I2932
I419
I96
I16
tRp40
aS'moving platform 3'
p41
ag27
aI01
aI0
aI1
aI168
aI200
aa(lp42
g3
(I3148
I396
I32
I32
tRp43
ag11
ag27
aI00
aI0
aI0
aI0
aI0
aa(lp44
g3
(I3385
I393
I32
I32
tRp45
ag11
ag27
aI00
aI0
aI0
aI0
aI0
aa(lp46
g3
(I3629
I395
I32
I32
tRp47
ag11
ag27
aI00
aI0
aI0
aI0
aI0
aa(lp48
g3
(I3805
I504
I32
I32
tRp49
ag11
ag27
aI00
aI0
aI0
aI0
aI0
aa(lp50
g3
(I3964
I511
I256
I32
tRp51
ag11
ag27
aI00
aI0
aI0
aI0
aI0
aa(lp52
g3
(I3881
I370
I32
I32
tRp53
ag26
ag27
aI00
aI0
aI0
aI0
aI0
aa(lp54
g3
(I3658
I630
I32
I128
tRp55
ag17
ag27
aI00
aI0
aI0
aI0
aI0
aa(lp56
g3
(I4289
I670
I32
I32
tRp57
ag17
ag27
aI00
aI0
aI0
aI0
aI0
aa(lp58
g3
(I4445
I600
I32
I32
tRp59
ag17
ag27
aI00
aI0
aI0
aI0
aI0
aa(lp60
g3
(I4577
I514
I32
I32
tRp61
ag17
ag27
aI00
aI0
aI0
aI0
aI0
aa(lp62
g3
(I917
I508
I32
I32
tRp63
aS'cloud'
p64
aNaI00
aI0
aI0
aI0
aI0
aa(lp65
g3
(I591
I607
I32
I32
tRp66
aS'question block'
p67
aS'hammer'
p68
aI00
aI0
aI0
aI0
aI0
aa(lp69
g3
(I2333
I654
I32
I32
tRp70
aS'ground 2'
p71
aNaI00
aI0
aI0
aI0
aI0
aa(lp72
g3
(I3048
I619
I32
I27
tRp73
aS'trampoline'
p74
aNaI00
aI0
aI0
aI0
aI0
aa(lp75
g3
(I3329
I621
I32
I27
tRp76
ag74
aNaI00
aI0
aI0
aI0
aI0
aa(lp77
g3
(I3578
I601
I32
I27
tRp78
ag74
aNaI00
aI0
aI0
aI0
aI0
aa.