(lp1
(lp2
cpygame
__rect_constructor
p3
(I303
I668
I448
I32
tRp4
aS'block 1'
p5
aNaI00
aI0
aI0
aI0
aI0
aa(lp6
g3
(I862
I544
I32
I32
tRp7
ag5
aNaI00
aI0
aI0
aI0
aI0
aa(lp8
g3
(I758
I590
I32
I32
tRp9
ag5
aNaI00
aI0
aI0
aI0
aI0
aa(lp10
g3
(I1006
I542
I32
I32
tRp11
ag5
aNaI00
aI0
aI0
aI0
aI0
aa(lp12
g3
(I1143
I540
I32
I32
tRp13
ag5
aNaI00
aI0
aI0
aI0
aI0
aa(lp14
g3
(I1301
I541
I32
I32
tRp15
ag5
aNaI00
aI0
aI0
aI0
aI0
aa(lp16
g3
(I1447
I539
I32
I32
tRp17
ag5
aNaI00
aI0
aI0
aI0
aI0
aa(lp18
g3
(I835
I723
I736
I32
tRp19
aS'grass'
p20
aNaI00
aI0
aI0
aI0
aI0
aa(lp21
g3
(I1836
I563
I416
I32
tRp22
ag5
aNaI00
aI0
aI0
aI0
aI0
aa(lp23
g3
(I2390
I561
I96
I16
tRp24
aS'moving platform 3'
p25
aNaI00
aI0
aI0
aI0
aI0
aa(lp26
g3
(I2624
I653
I96
I16
tRp27
ag25
aNaI00
aI0
aI0
aI0
aI0
aa(lp28
g3
(I2873
I726
I96
I16
tRp29
ag25
aNaI00
aI0
aI0
aI0
aI0
aa(lp30
g3
(I3106
I655
I32
I27
tRp31
aS'trampoline'
p32
aNaI00
aI0
aI0
aI0
aI0
aa(lp33
g3
(I3304
I599
I32
I27
tRp34
ag32
aNaI00
aI0
aI0
aI0
aI0
aa(lp35
g3
(I3434
I525
I448
I32
tRp36
ag20
aNaI00
aI0
aI0
aI0
aI0
aa(lp37
g3
(I3345
I402
I32
I32
tRp38
ag5
aNaI00
aI0
aI0
aI0
aI0
aa(lp39
g3
(I3160
I399
I32
I32
tRp40
ag5
aNaI00
aI0
aI0
aI0
aI0
aa(lp41
g3
(I3010
I478
I32
I32
tRp42
ag5
aNaI00
aI0
aI0
aI0
aI0
aa(lp43
g3
(I2629
I422
I224
I32
tRp44
ag5
aNaI00
aI0
aI0
aI0
aI0
aa(lp45
g3
(I2663
I305
I32
I32
tRp46
aS'question block'
p47
aS'green mushroom'
p48
aI00
aI0
aI0
aI0
aI0
aa(lp49
g3
(I2746
I306
I32
I32
tRp50
ag47
aS'mushroom'
p51
aI00
aI0
aI0
aI0
aI0
aa(lp52
g3
(I4075
I543
I96
I128
tRp53
aS'mushroom platform'
p54
ag51
aI00
aI0
aI0
aI0
aI0
aa(lp55
g3
(I4456
I451
I96
I128
tRp56
ag54
ag51
aI00
aI0
aI0
aI0
aI0
aa(lp57
g3
(I4731
I515
I64
I64
tRp58
aS'pipe'
p59
ag51
aI00
aI0
aI0
aI0
aI0
aa(lp60
g3
(I5083
I514
I64
I64
tRp61
ag59
ag51
aI00
aI0
aI0
aI0
aI0
aa(lp62
g3
(I5257
I489
I32
I32
tRp63
aS'brick 4'
p64
ag51
aI00
aI0
aI0
aI0
aI0
aa(lp65
g3
(I5401
I431
I32
I32
tRp66
ag64
ag51
aI00
aI0
aI0
aI0
aI0
aa(lp67
g3
(I5518
I367
I32
I32
tRp68
ag64
ag51
aI00
aI0
aI0
aI0
aI0
aa(lp69
g3
(I1683
I642
I64
I64
tRp70
aS'pipe'
p71
aNaI00
aI0
aI0
aI0
aI0
aa(lp72
g3
(I1566
I482
I32
I32
tRp73
aS'block 1'
p74
aNaI00
aI0
aI0
aI0
aI0
aa.