(lp1
(lp2
S'goomba'
p3
acpygame
__rect_constructor
p4
(I2569
I383
I32
I32
tRp5
aI-2
a(I32
I32
tp6
aI-15
aF1.5
aI0
aS'alive'
p7
aI00
aI2
aI1
aI301
aI301
aI1
aS'parabolic'
p8
aI01
aI0
aI10000
aI01
aI0
aa(lp9
g3
ag4
(I2446
I388
I32
I32
tRp10
aI-2
ag6
aI-15
aF1.5
aI0
ag7
aI00
aI2
aI1
aI301
aI301
aI1
ag8
aI01
aI0
aI10000
aI01
aI0
aa(lp11
g3
ag4
(I2278
I387
I32
I32
tRp12
aI-2
ag6
aI-15
aF1.5
aI0
ag7
aI00
aI2
aI1
aI301
aI301
aI1
ag8
aI01
aI0
aI10000
aI01
aI0
aa(lp13
S'flying koopa green'
p14
ag4
(I2837
I523
I54
I75
tRp15
aI3
a(I54
I75
tp16
aI-15
aF1.5
aI0
aS'flying'
p17
aI00
aI2
aI1
aI301
aI301
aI1
ag8
aI00
aI0
aI100
aI01
aI0
aa(lp18
g14
ag4
(I2984
I480
I54
I75
tRp19
aI3
ag16
aI-15
aF1.5
aI0
ag17
aI00
aI2
aI1
aI301
aI301
aI1
ag8
aI00
aI0
aI100
aI01
aI0
aa(lp20
S'koopa'
p21
ag4
(I784
I614
I32
I48
tRp22
aI-5
a(I32
I48
tp23
aI-10
aF1.5
aI0
ag7
aI00
aI2
aI1
aI301
aI301
aI2
ag8
aI00
aI0
aI10000
aI01
aI0
aa(lp24
S'red koopa'
p25
ag4
(I1202
I541
I32
I48
tRp26
aI-2
a(I32
I48
tp27
aI-15
aF1.5
aI0
ag7
aI00
aI2
aI1
aI301
aI301
aI2
ag8
aI00
aI0
aI1000000
aI01
aI0
aa(lp28
S'buzzy beetle'
p29
ag4
(I2033
I401
I32
I32
tRp30
aI-1
a(I32
I32
tp31
aI-15
aI0
aI0
ag7
aI00
aI2
aI1
aI301
aI301
aI2
ag8
aI00
aI0
aI10000
aI01
aI1000
aa(lp32
S'hammer bros'
p33
ag4
(I2954
I662
I32
I48
tRp34
aI-1
a(I32
I48
tp35
aI-15
aI0
aI0
ag7
aI00
aI2
aI99
aI4
aI13
aI1
ag8
aI00
aI0
aI10000
aI01
aI0
aa.