(lp1
(lp2
cpygame
__rect_constructor
p3
(I3727
I426
I32
I32
tRp4
aS'coin'
p5
aNaNaNaNaNaNaNaa(lp6
g3
(I3748
I426
I32
I32
tRp7
ag5
aNaNaNaNaNaNaNaa(lp8
g3
(I3769
I427
I32
I32
tRp9
ag5
aNaNaNaNaNaNaNaa(lp10
g3
(I3787
I427
I32
I32
tRp11
ag5
aNaNaNaNaNaNaNaa(lp12
g3
(I3806
I426
I32
I32
tRp13
ag5
aNaNaNaNaNaNaNaa(lp14
g3
(I3824
I425
I32
I32
tRp15
ag5
aNaNaNaNaNaNaNaa(lp16
g3
(I3846
I426
I32
I32
tRp17
ag5
aNaNaNaNaNaNaNaa(lp18
g3
(I3866
I424
I32
I32
tRp19
ag5
aNaNaNaNaNaNaNaa(lp20
g3
(I3887
I424
I32
I32
tRp21
ag5
aNaNaNaNaNaNaNaa(lp22
g3
(I3877
I398
I32
I32
tRp23
ag5
aNaNaNaNaNaNaNaa(lp24
g3
(I3863
I389
I32
I32
tRp25
ag5
aNaNaNaNaNaNaNaa(lp26
g3
(I3848
I375
I32
I32
tRp27
ag5
aNaNaNaNaNaNaNaa(lp28
g3
(I3831
I366
I32
I32
tRp29
ag5
aNaNaNaNaNaNaNaa(lp30
g3
(I3819
I358
I32
I32
tRp31
ag5
aNaNaNaNaNaNaNaa(lp32
g3
(I3804
I351
I32
I32
tRp33
ag5
aNaNaNaNaNaNaNaa(lp34
g3
(I3884
I436
I32
I32
tRp35
ag5
aNaNaNaNaNaNaNaa(lp36
g3
(I3872
I446
I32
I32
tRp37
ag5
aNaNaNaNaNaNaNaa(lp38
g3
(I3858
I461
I32
I32
tRp39
ag5
aNaNaNaNaNaNaNaa(lp40
g3
(I3844
I473
I32
I32
tRp41
ag5
aNaNaNaNaNaNaNaa(lp42
g3
(I3828
I484
I32
I32
tRp43
ag5
aNaNaNaNaNaNaNaa(lp44
g3
(I3814
I492
I32
I32
tRp45
ag5
aNaNaNaNaNaNaNaa(lp46
g3
(I3712
I432
I32
I32
tRp47
ag5
aNaNaNaNaNaNaNaa(lp48
g3
(I3694
I429
I32
I32
tRp49
ag5
aNaNaNaNaNaNaNaa(lp50
g3
(I3673
I429
I32
I32
tRp51
ag5
aNaNaNaNaNaNaNaa(lp52
g3
(I3458
I430
I32
I32
tRp53
ag5
aNaNaNaNaNaNaNaa(lp54
g3
(I3442
I430
I32
I32
tRp55
ag5
aNaNaNaNaNaNaNaa(lp56
g3
(I3423
I430
I32
I32
tRp57
ag5
aNaNaNaNaNaNaNaa(lp58
g3
(I3406
I431
I32
I32
tRp59
ag5
aNaNaNaNaNaNaNaa(lp60
g3
(I3382
I435
I32
I32
tRp61
ag5
aNaNaNaNaNaNaNaa(lp62
g3
(I3391
I431
I32
I32
tRp63
ag5
aNaNaNaNaNaNaNaa(lp64
g3
(I3369
I432
I32
I32
tRp65
ag5
aNaNaNaNaNaNaNaa(lp66
g3
(I3356
I433
I32
I32
tRp67
ag5
aNaNaNaNaNaNaNaa(lp68
g3
(I3336
I433
I32
I32
tRp69
ag5
aNaNaNaNaNaNaNaa(lp70
g3
(I3325
I433
I32
I32
tRp71
ag5
aNaNaNaNaNaNaNaa(lp72
g3
(I3309
I433
I32
I32
tRp73
ag5
aNaNaNaNaNaNaNaa(lp74
g3
(I3292
I434
I32
I32
tRp75
ag5
aNaNaNaNaNaNaNaa(lp76
g3
(I3275
I433
I32
I32
tRp77
ag5
aNaNaNaNaNaNaNaa(lp78
g3
(I3298
I429
I32
I32
tRp79
ag5
aNaNaNaNaNaNaNaa(lp80
g3
(I3257
I433
I32
I32
tRp81
ag5
aNaNaNaNaNaNaNaa(lp82
g3
(I3257
I419
I32
I32
tRp83
ag5
aNaNaNaNaNaNaNaa(lp84
g3
(I3277
I408
I32
I32
tRp85
ag5
aNaNaNaNaNaNaNaa(lp86
g3
(I3297
I402
I32
I32
tRp87
ag5
aNaNaNaNaNaNaNaa(lp88
g3
(I3312
I388
I32
I32
tRp89
ag5
aNaNaNaNaNaNaNaa(lp90
g3
(I3326
I381
I32
I32
tRp91
ag5
aNaNaNaNaNaNaNaa(lp92
g3
(I3334
I371
I32
I32
tRp93
ag5
aNaNaNaNaNaNaNaa(lp94
g3
(I3344
I361
I32
I32
tRp95
ag5
aNaNaNaNaNaNaNaa(lp96
g3
(I3361
I351
I32
I32
tRp97
ag5
aNaNaNaNaNaNaNaa(lp98
g3
(I3257
I449
I32
I32
tRp99
ag5
aNaNaNaNaNaNaNaa(lp100
g3
(I3275
I465
I32
I32
tRp101
ag5
aNaNaNaNaNaNaNaa(lp102
g3
(I3295
I481
I32
I32
tRp103
ag5
aNaNaNaNaNaNaNaa(lp104
g3
(I3302
I490
I32
I32
tRp105
ag5
aNaNaNaNaNaNaNaa(lp106
g3
(I3315
I501
I32
I32
tRp107
ag5
aNaNaNaNaNaNaNaa(lp108
g3
(I3329
I511
I32
I32
tRp109
ag5
aNaNaNaNaNaNaNaa(lp110
g3
(I3339
I523
I32
I32
tRp111
ag5
aNaNaNaNaNaNaNaa(lp112
g3
(I3278
I479
I32
I32
tRp113
ag5
aNaNaNaNaNaNaNaa(lp114
g3
(I5533
I375
I46
I305
tRp115
aS'flag'
p116
aNaNaNaNaNaNaNaa(lp117
g3
(I1858
I550
I32
I32
tRp118
aS'trampoline'
p119
aNaNaNaNaNaNaNaa(lp120
g3
(I1210
I563
I96
I160
tRp121
aS'spark'
p122
aI2
aI2
aI0
aI0
aI01
ag3
(I1256
I688
I54
I54
tRp123
aI01
aa(lp124
g3
(I936
I557
I96
I160
tRp125
ag122
aI2
aI2
aI0
aI0
aI01
ag3
(I1000
I668
I54
I54
tRp126
aI01
aa(lp127
g3
(I33
I419
I46
I305
tRp128
aS'flag'
p129
aNaNaNaNaNaNaNaa(lp130
g3
(I105
I572
I288
I64
tRp131
aS'spark'
p132
aI2
aI2
aI0
aI0
aI01
ag3
(I241
I629
I54
I54
tRp133
aI01
aa(lp134
g3
(I479
I568
I320
I64
tRp135
ag132
aI2
aI2
aI0
aI0
aI01
ag3
(I667
I642
I54
I54
tRp136
aI01
aa.