(lp1
(lp2
cpygame
__rect_constructor
p3
(I179
I599
I640
I64
tRp4
aS'brick 2'
p5
aNaI00
aI0
aI0
aI0
aI0
aa(lp6
g3
(I267
I457
I32
I32
tRp7
aS'question block'
p8
aS'flower'
p9
aI00
aI0
aI0
aI0
aI0
aa(lp10
g3
(I830
I606
I320
I64
tRp11
aS'lava'
p12
ag9
aI00
aI0
aI0
aI0
aI0
aa(lp13
g3
(I606
I521
I96
I16
tRp14
aS'moving platform 3'
p15
ag9
aI01
aI0
aI1
aI-200
aI200
aa(lp16
g3
(I1258
I600
I64
I64
tRp17
aS'pipe'
p18
ag9
aI00
aI0
aI0
aI0
aI0
aa(lp19
g3
(I1588
I608
I64
I64
tRp20
ag18
ag9
aI00
aI0
aI0
aI0
aI0
aa(lp21
g3
(I1770
I612
I416
I64
tRp22
aS'brick 3'
p23
ag9
aI00
aI0
aI0
aI0
aI0
aa(lp24
g3
(I2323
I606
I416
I32
tRp25
aS'cloud'
p26
ag9
aI00
aI0
aI0
aI0
aI0
aa(lp27
g3
(I2243
I506
I32
I27
tRp28
aS'trampoline'
p29
aNaI00
aI0
aI0
aI0
aI0
aa(lp30
g3
(I2243
I506
I32
I27
tRp31
ag29
aNaI00
aI0
aI0
aI0
aI0
aa(lp32
g3
(I2243
I506
I32
I27
tRp33
ag29
aNaI00
aI0
aI0
aI0
aI0
aa(lp34
g3
(I2243
I506
I32
I27
tRp35
ag29
aNaI00
aI0
aI0
aI0
aI0
aa(lp36
g3
(I2243
I506
I32
I27
tRp37
ag29
aNaI00
aI0
aI0
aI0
aI0
aa(lp38
g3
(I2131
I559
I32
I27
tRp39
ag29
aNaI00
aI0
aI0
aI0
aI0
aa(lp40
g3
(I2131
I559
I32
I27
tRp41
ag29
aNaI00
aI0
aI0
aI0
aI0
aa(lp42
g3
(I2131
I559
I32
I27
tRp43
ag29
aNaI00
aI0
aI0
aI0
aI0
aa(lp44
g3
(I2131
I559
I32
I27
tRp45
ag29
aNaI00
aI0
aI0
aI0
aI0
aa(lp46
g3
(I2131
I559
I32
I27
tRp47
ag29
aNaI00
aI0
aI0
aI0
aI0
aa.