(lp1
(lp2
cpygame
__rect_constructor
p3
(I2445
I522
I32
I32
tRp4
aS'coin'
p5
aa(lp6
g3
(I2445
I522
I32
I32
tRp7
ag5
aa(lp8
g3
(I2445
I522
I32
I32
tRp9
ag5
aa(lp10
g3
(I2448
I522
I32
I32
tRp11
ag5
aa(lp12
g3
(I2470
I524
I32
I32
tRp13
ag5
aa(lp14
g3
(I2506
I528
I32
I32
tRp15
ag5
aa(lp16
g3
(I2531
I532
I32
I32
tRp17
ag5
aa(lp18
g3
(I2590
I541
I32
I32
tRp19
ag5
aa(lp20
g3
(I2631
I547
I32
I32
tRp21
ag5
aa(lp22
g3
(I2655
I550
I32
I32
tRp23
ag5
aa(lp24
g3
(I2660
I550
I32
I32
tRp25
ag5
aa(lp26
g3
(I2664
I550
I32
I32
tRp27
ag5
aa(lp28
g3
(I2664
I547
I32
I32
tRp29
ag5
aa(lp30
g3
(I2664
I543
I32
I32
tRp31
ag5
aa(lp32
g3
(I2659
I536
I32
I32
tRp33
ag5
aa(lp34
g3
(I2654
I533
I32
I32
tRp35
ag5
aa(lp36
g3
(I2647
I527
I32
I32
tRp37
ag5
aa(lp38
g3
(I2634
I516
I32
I32
tRp39
ag5
aa(lp40
g3
(I2626
I508
I32
I32
tRp41
ag5
aa(lp42
g3
(I2609
I494
I32
I32
tRp43
ag5
aa(lp44
g3
(I2594
I484
I32
I32
tRp45
ag5
aa(lp46
g3
(I2585
I480
I32
I32
tRp47
ag5
aa(lp48
g3
(I2567
I475
I32
I32
tRp49
ag5
aa(lp50
g3
(I2550
I473
I32
I32
tRp51
ag5
aa(lp52
g3
(I2540
I473
I32
I32
tRp53
ag5
aa(lp54
g3
(I2520
I474
I32
I32
tRp55
ag5
aa(lp56
g3
(I2510
I478
I32
I32
tRp57
ag5
aa(lp58
g3
(I2490
I487
I32
I32
tRp59
ag5
aa(lp60
g3
(I2473
I498
I32
I32
tRp61
ag5
aa(lp62
g3
(I2467
I505
I32
I32
tRp63
ag5
aa(lp64
g3
(I2458
I517
I32
I32
tRp65
ag5
aa(lp66
g3
(I2455
I525
I32
I32
tRp67
ag5
aa(lp68
g3
(I2455
I528
I32
I32
tRp69
ag5
aa(lp70
g3
(I2459
I536
I32
I32
tRp71
ag5
aa(lp72
g3
(I2469
I543
I32
I32
tRp73
ag5
aa(lp74
g3
(I2475
I545
I32
I32
tRp75
ag5
aa(lp76
g3
(I2492
I553
I32
I32
tRp77
ag5
aa(lp78
g3
(I2515
I557
I32
I32
tRp79
ag5
aa(lp80
g3
(I2526
I558
I32
I32
tRp81
ag5
aa(lp82
g3
(I2553
I558
I32
I32
tRp83
ag5
aa(lp84
g3
(I2581
I559
I32
I32
tRp85
ag5
aa(lp86
g3
(I2596
I560
I32
I32
tRp87
ag5
aa(lp88
g3
(I2618
I561
I32
I32
tRp89
ag5
aa(lp90
g3
(I2637
I561
I32
I32
tRp91
ag5
aa(lp92
g3
(I2649
I556
I32
I32
tRp93
ag5
aa(lp94
g3
(I2653
I551
I32
I32
tRp95
ag5
aa(lp96
g3
(I2656
I542
I32
I32
tRp97
ag5
aa(lp98
g3
(I2658
I536
I32
I32
tRp99
ag5
aa(lp100
g3
(I2658
I534
I32
I32
tRp101
ag5
aa(lp102
g3
(I2658
I531
I32
I32
tRp103
ag5
aa(lp104
g3
(I2656
I527
I32
I32
tRp105
ag5
aa(lp106
g3
(I2649
I524
I32
I32
tRp107
ag5
aa(lp108
g3
(I2644
I523
I32
I32
tRp109
ag5
aa(lp110
g3
(I2630
I520
I32
I32
tRp111
ag5
aa(lp112
g3
(I2608
I520
I32
I32
tRp113
ag5
aa(lp114
g3
(I2595
I520
I32
I32
tRp115
ag5
aa(lp116
g3
(I2568
I517
I32
I32
tRp117
ag5
aa(lp118
g3
(I2539
I513
I32
I32
tRp119
ag5
aa(lp120
g3
(I2529
I513
I32
I32
tRp121
ag5
aa(lp122
g3
(I2516
I513
I32
I32
tRp123
ag5
aa(lp124
g3
(I2510
I515
I32
I32
tRp125
ag5
aa(lp126
g3
(I2500
I520
I32
I32
tRp127
ag5
aa(lp128
g3
(I2491
I529
I32
I32
tRp129
ag5
aa(lp130
g3
(I2488
I532
I32
I32
tRp131
ag5
aa(lp132
g3
(I2483
I537
I32
I32
tRp133
ag5
aa(lp134
g3
(I2482
I539
I32
I32
tRp135
ag5
aa(lp136
g3
(I2481
I539
I32
I32
tRp137
ag5
aa(lp138
g3
(I2481
I540
I32
I32
tRp139
ag5
aa(lp140
g3
(I2481
I540
I32
I32
tRp141
ag5
aa(lp142
g3
(I2481
I541
I32
I32
tRp143
ag5
aa(lp144
g3
(I2488
I545
I32
I32
tRp145
ag5
aa(lp146
g3
(I2494
I547
I32
I32
tRp147
ag5
aa(lp148
g3
(I2502
I551
I32
I32
tRp149
ag5
aa(lp150
g3
(I2506
I551
I32
I32
tRp151
ag5
aa(lp152
g3
(I2510
I553
I32
I32
tRp153
ag5
aa(lp154
g3
(I2522
I557
I32
I32
tRp155
ag5
aa(lp156
g3
(I2539
I564
I32
I32
tRp157
ag5
aa(lp158
g3
(I2550
I565
I32
I32
tRp159
ag5
aa(lp160
g3
(I2569
I569
I32
I32
tRp161
ag5
aa(lp162
g3
(I2587
I572
I32
I32
tRp163
ag5
aa(lp164
g3
(I2593
I572
I32
I32
tRp165
ag5
aa(lp166
g3
(I2603
I572
I32
I32
tRp167
ag5
aa(lp168
g3
(I2606
I572
I32
I32
tRp169
ag5
aa(lp170
g3
(I2610
I572
I32
I32
tRp171
ag5
aa(lp172
g3
(I2610
I571
I32
I32
tRp173
ag5
aa(lp174
g3
(I2243
I501
I32
I32
tRp175
aS'trampoline'
p176
aa(lp177
g3
(I2243
I501
I32
I32
tRp178
ag176
aa(lp179
g3
(I2243
I501
I32
I32
tRp180
ag176
aa(lp181
g3
(I2243
I501
I32
I32
tRp182
ag176
aa(lp183
g3
(I2243
I501
I32
I32
tRp184
ag176
aa(lp185
g3
(I2131
I554
I32
I32
tRp186
ag176
aa(lp187
g3
(I2131
I554
I32
I32
tRp188
ag176
aa(lp189
g3
(I2131
I554
I32
I32
tRp190
ag176
aa(lp191
g3
(I2131
I554
I32
I32
tRp192
ag176
aa(lp193
g3
(I2131
I554
I32
I32
tRp194
ag176
aa.