(lp1
(lp2
S'goomba'
p3
acpygame
__rect_constructor
p4
(I239
I615
I32
I32
tRp5
aI-2
a(I32
I32
tp6
aI-15
aF1.5
aI0
aS'alive'
p7
aI00
aI00
aI301
aI1
aI301
aI1
aS'parabolic'
p8
aI01
aI0
aI10000
aI01
aI0
aa(lp9
g3
ag4
(I616
I613
I32
I32
tRp10
aI-2
ag6
aI-15
aF1.5
aI0
ag7
aI00
aI00
aI301
aI1
aI301
aI1
ag8
aI01
aI0
aI10000
aI01
aI0
aa(lp11
S'koopa'
p12
ag4
(I425
I601
I32
I48
tRp13
aI-2
a(I32
I48
tp14
aI-15
aF1.5
aI0
ag7
aI00
aI00
aI301
aI1
aI301
aI1
ag8
aI00
aI0
aI200000
aI01
aI0
aa.