(lp1
(lp2
cpygame
__rect_constructor
p3
(I535
I423
I32
I32
tRp4
aS'coin'
p5
aa(lp6
g3
(I535
I423
I32
I32
tRp7
ag5
aa(lp8
g3
(I535
I423
I32
I32
tRp9
ag5
aa(lp10
g3
(I537
I401
I32
I32
tRp11
ag5
aa(lp12
g3
(I537
I401
I32
I32
tRp13
ag5
aa(lp14
g3
(I537
I401
I32
I32
tRp15
ag5
aa(lp16
g3
(I537
I401
I32
I32
tRp17
ag5
aa(lp18
g3
(I534
I381
I32
I32
tRp19
ag5
aa(lp20
g3
(I534
I381
I32
I32
tRp21
ag5
aa(lp22
g3
(I534
I381
I32
I32
tRp23
ag5
aa(lp24
g3
(I530
I359
I32
I32
tRp25
ag5
aa(lp26
g3
(I530
I359
I32
I32
tRp27
ag5
aa(lp28
g3
(I530
I359
I32
I32
tRp29
ag5
aa(lp30
g3
(I321
I393
I32
I32
tRp31
ag5
aa(lp32
g3
(I321
I393
I32
I32
tRp33
ag5
aa(lp34
g3
(I321
I393
I32
I32
tRp35
ag5
aa(lp36
g3
(I318
I364
I32
I32
tRp37
ag5
aa(lp38
g3
(I319
I364
I32
I32
tRp39
ag5
aa(lp40
g3
(I319
I364
I32
I32
tRp41
ag5
aa(lp42
g3
(I323
I341
I32
I32
tRp43
ag5
aa(lp44
g3
(I323
I341
I32
I32
tRp45
ag5
aa(lp46
g3
(I323
I341
I32
I32
tRp47
ag5
aa(lp48
g3
(I323
I320
I32
I32
tRp49
ag5
aa(lp50
g3
(I323
I320
I32
I32
tRp51
ag5
aa(lp52
g3
(I323
I320
I32
I32
tRp53
ag5
aa(lp54
g3
(I316
I351
I32
I32
tRp55
ag5
aa(lp56
g3
(I316
I351
I32
I32
tRp57
ag5
aa(lp58
g3
(I312
I336
I32
I32
tRp59
ag5
aa(lp60
g3
(I312
I336
I32
I32
tRp61
ag5
aa(lp62
g3
(I312
I336
I32
I32
tRp63
ag5
aa(lp64
g3
(I314
I323
I32
I32
tRp65
ag5
aa(lp66
g3
(I314
I323
I32
I32
tRp67
ag5
aa(lp68
g3
(I317
I324
I32
I32
tRp69
ag5
aa(lp70
g3
(I317
I324
I32
I32
tRp71
ag5
aa(lp72
g3
(I317
I324
I32
I32
tRp73
ag5
aa(lp74
g3
(I313
I354
I32
I32
tRp75
ag5
aa(lp76
g3
(I313
I354
I32
I32
tRp77
ag5
aa(lp78
g3
(I313
I354
I32
I32
tRp79
ag5
aa(lp80
g3
(I313
I367
I32
I32
tRp81
ag5
aa(lp82
g3
(I314
I371
I32
I32
tRp83
ag5
aa(lp84
g3
(I314
I372
I32
I32
tRp85
ag5
aa(lp86
g3
(I330
I381
I32
I32
tRp87
ag5
aa(lp88
g3
(I330
I381
I32
I32
tRp89
ag5
aa(lp90
g3
(I330
I381
I32
I32
tRp91
ag5
aa(lp92
g3
(I325
I352
I32
I32
tRp93
ag5
aa(lp94
g3
(I325
I352
I32
I32
tRp95
ag5
aa(lp96
g3
(I325
I352
I32
I32
tRp97
ag5
aa(lp98
g3
(I322
I343
I32
I32
tRp99
ag5
aa(lp100
g3
(I322
I343
I32
I32
tRp101
ag5
aa(lp102
g3
(I306
I344
I32
I32
tRp103
ag5
aa(lp104
g3
(I306
I344
I32
I32
tRp105
ag5
aa(lp106
g3
(I304
I355
I32
I32
tRp107
ag5
aa(lp108
g3
(I304
I362
I32
I32
tRp109
ag5
aa(lp110
g3
(I306
I366
I32
I32
tRp111
ag5
aa(lp112
g3
(I312
I375
I32
I32
tRp113
ag5
aa(lp114
g3
(I318
I376
I32
I32
tRp115
ag5
aa(lp116
g3
(I318
I376
I32
I32
tRp117
ag5
aa(lp118
g3
(I318
I376
I32
I32
tRp119
ag5
aa(lp120
g3
(I323
I352
I32
I32
tRp121
ag5
aa(lp122
g3
(I323
I352
I32
I32
tRp123
ag5
aa(lp124
g3
(I323
I352
I32
I32
tRp125
ag5
aa(lp126
g3
(I317
I340
I32
I32
tRp127
ag5
aa(lp128
g3
(I317
I340
I32
I32
tRp129
ag5
aa(lp130
g3
(I317
I340
I32
I32
tRp131
ag5
aa(lp132
g3
(I325
I352
I32
I32
tRp133
ag5
aa(lp134
g3
(I325
I359
I32
I32
tRp135
ag5
aa(lp136
g3
(I750
I503
I32
I32
tRp137
ag5
aa(lp138
g3
(I750
I503
I32
I32
tRp139
ag5
aa(lp140
g3
(I750
I503
I32
I32
tRp141
ag5
aa(lp142
g3
(I163
I464
I32
I32
tRp143
ag5
aa(lp144
g3
(I163
I464
I32
I32
tRp145
ag5
aa(lp146
g3
(I817
I412
I32
I32
tRp147
ag5
aa(lp148
g3
(I817
I412
I32
I32
tRp149
ag5
aa(lp150
g3
(I817
I412
I32
I32
tRp151
ag5
aa(lp152
g3
(I871
I381
I32
I32
tRp153
ag5
aa(lp154
g3
(I871
I381
I32
I32
tRp155
ag5
aa(lp156
g3
(I871
I381
I32
I32
tRp157
ag5
aa(lp158
g3
(I938
I455
I32
I32
tRp159
ag5
aa(lp160
g3
(I938
I455
I32
I32
tRp161
ag5
aa.